
intel_i7_benchmark_suite:     file format elf64-x86-64


Disassembly of section .init:

00000000004015e0 <_init>:
  4015e0:	48 83 ec 08          	sub    $0x8,%rsp
  4015e4:	48 8b 05 0d 2a 21 00 	mov    0x212a0d(%rip),%rax        # 613ff8 <_DYNAMIC+0x220>
  4015eb:	48 85 c0             	test   %rax,%rax
  4015ee:	74 05                	je     4015f5 <_init+0x15>
  4015f0:	e8 4b 00 00 00       	callq  401640 <__gmon_start__@plt>
  4015f5:	48 83 c4 08          	add    $0x8,%rsp
  4015f9:	c3                   	retq   

Disassembly of section .plt:

0000000000401600 <_ZSt20__throw_length_errorPKc@plt-0x10>:
  401600:	ff 35 02 2a 21 00    	pushq  0x212a02(%rip)        # 614008 <_GLOBAL_OFFSET_TABLE_+0x8>
  401606:	ff 25 04 2a 21 00    	jmpq   *0x212a04(%rip)        # 614010 <_GLOBAL_OFFSET_TABLE_+0x10>
  40160c:	0f 1f 40 00          	nopl   0x0(%rax)

0000000000401610 <_ZSt20__throw_length_errorPKc@plt>:
  401610:	ff 25 02 2a 21 00    	jmpq   *0x212a02(%rip)        # 614018 <_GLOBAL_OFFSET_TABLE_+0x18>
  401616:	68 00 00 00 00       	pushq  $0x0
  40161b:	e9 e0 ff ff ff       	jmpq   401600 <_init+0x20>

0000000000401620 <_ZNSolsEd@plt>:
  401620:	ff 25 fa 29 21 00    	jmpq   *0x2129fa(%rip)        # 614020 <_GLOBAL_OFFSET_TABLE_+0x20>
  401626:	68 01 00 00 00       	pushq  $0x1
  40162b:	e9 d0 ff ff ff       	jmpq   401600 <_init+0x20>

0000000000401630 <_ZNSolsEi@plt>:
  401630:	ff 25 f2 29 21 00    	jmpq   *0x2129f2(%rip)        # 614028 <_GLOBAL_OFFSET_TABLE_+0x28>
  401636:	68 02 00 00 00       	pushq  $0x2
  40163b:	e9 c0 ff ff ff       	jmpq   401600 <_init+0x20>

0000000000401640 <__gmon_start__@plt>:
  401640:	ff 25 ea 29 21 00    	jmpq   *0x2129ea(%rip)        # 614030 <_GLOBAL_OFFSET_TABLE_+0x30>
  401646:	68 03 00 00 00       	pushq  $0x3
  40164b:	e9 b0 ff ff ff       	jmpq   401600 <_init+0x20>

0000000000401650 <_Znam@plt>:
  401650:	ff 25 e2 29 21 00    	jmpq   *0x2129e2(%rip)        # 614038 <_GLOBAL_OFFSET_TABLE_+0x38>
  401656:	68 04 00 00 00       	pushq  $0x4
  40165b:	e9 a0 ff ff ff       	jmpq   401600 <_init+0x20>

0000000000401660 <_ZdlPv@plt>:
  401660:	ff 25 da 29 21 00    	jmpq   *0x2129da(%rip)        # 614040 <_GLOBAL_OFFSET_TABLE_+0x40>
  401666:	68 05 00 00 00       	pushq  $0x5
  40166b:	e9 90 ff ff ff       	jmpq   401600 <_init+0x20>

0000000000401670 <__assert_fail@plt>:
  401670:	ff 25 d2 29 21 00    	jmpq   *0x2129d2(%rip)        # 614048 <_GLOBAL_OFFSET_TABLE_+0x48>
  401676:	68 06 00 00 00       	pushq  $0x6
  40167b:	e9 80 ff ff ff       	jmpq   401600 <_init+0x20>

0000000000401680 <__cxa_rethrow@plt>:
  401680:	ff 25 ca 29 21 00    	jmpq   *0x2129ca(%rip)        # 614050 <_GLOBAL_OFFSET_TABLE_+0x50>
  401686:	68 07 00 00 00       	pushq  $0x7
  40168b:	e9 70 ff ff ff       	jmpq   401600 <_init+0x20>

0000000000401690 <_ZNSt8ios_base4InitC1Ev@plt>:
  401690:	ff 25 c2 29 21 00    	jmpq   *0x2129c2(%rip)        # 614058 <_GLOBAL_OFFSET_TABLE_+0x58>
  401696:	68 08 00 00 00       	pushq  $0x8
  40169b:	e9 60 ff ff ff       	jmpq   401600 <_init+0x20>

00000000004016a0 <__libc_start_main@plt>:
  4016a0:	ff 25 ba 29 21 00    	jmpq   *0x2129ba(%rip)        # 614060 <_GLOBAL_OFFSET_TABLE_+0x60>
  4016a6:	68 09 00 00 00       	pushq  $0x9
  4016ab:	e9 50 ff ff ff       	jmpq   401600 <_init+0x20>

00000000004016b0 <_ZNSt14basic_ofstreamIcSt11char_traitsIcEE4openERKSsSt13_Ios_Openmode@plt>:
  4016b0:	ff 25 b2 29 21 00    	jmpq   *0x2129b2(%rip)        # 614068 <_GLOBAL_OFFSET_TABLE_+0x68>
  4016b6:	68 0a 00 00 00       	pushq  $0xa
  4016bb:	e9 40 ff ff ff       	jmpq   401600 <_init+0x20>

00000000004016c0 <_ZNSsC1ERKSs@plt>:
  4016c0:	ff 25 aa 29 21 00    	jmpq   *0x2129aa(%rip)        # 614070 <_GLOBAL_OFFSET_TABLE_+0x70>
  4016c6:	68 0b 00 00 00       	pushq  $0xb
  4016cb:	e9 30 ff ff ff       	jmpq   401600 <_init+0x20>

00000000004016d0 <__cxa_atexit@plt>:
  4016d0:	ff 25 a2 29 21 00    	jmpq   *0x2129a2(%rip)        # 614078 <_GLOBAL_OFFSET_TABLE_+0x78>
  4016d6:	68 0c 00 00 00       	pushq  $0xc
  4016db:	e9 20 ff ff ff       	jmpq   401600 <_init+0x20>

00000000004016e0 <_ZNSt13runtime_errorC1ERKSs@plt>:
  4016e0:	ff 25 9a 29 21 00    	jmpq   *0x21299a(%rip)        # 614080 <_GLOBAL_OFFSET_TABLE_+0x80>
  4016e6:	68 0d 00 00 00       	pushq  $0xd
  4016eb:	e9 10 ff ff ff       	jmpq   401600 <_init+0x20>

00000000004016f0 <_ZNSt6thread15_M_start_threadESt10shared_ptrINS_10_Impl_baseEE@plt>:
  4016f0:	ff 25 92 29 21 00    	jmpq   *0x212992(%rip)        # 614088 <_GLOBAL_OFFSET_TABLE_+0x88>
  4016f6:	68 0e 00 00 00       	pushq  $0xe
  4016fb:	e9 00 ff ff ff       	jmpq   401600 <_init+0x20>

0000000000401700 <_ZNSt6thread20hardware_concurrencyEv@plt>:
  401700:	ff 25 8a 29 21 00    	jmpq   *0x21298a(%rip)        # 614090 <_GLOBAL_OFFSET_TABLE_+0x90>
  401706:	68 0f 00 00 00       	pushq  $0xf
  40170b:	e9 f0 fe ff ff       	jmpq   401600 <_init+0x20>

0000000000401710 <_ZNSt8ios_base4InitD1Ev@plt>:
  401710:	ff 25 82 29 21 00    	jmpq   *0x212982(%rip)        # 614098 <_GLOBAL_OFFSET_TABLE_+0x98>
  401716:	68 10 00 00 00       	pushq  $0x10
  40171b:	e9 e0 fe ff ff       	jmpq   401600 <_init+0x20>

0000000000401720 <_ZStlsISt11char_traitsIcEERSt13basic_ostreamIcT_ES5_PKc@plt>:
  401720:	ff 25 7a 29 21 00    	jmpq   *0x21297a(%rip)        # 6140a0 <_GLOBAL_OFFSET_TABLE_+0xa0>
  401726:	68 11 00 00 00       	pushq  $0x11
  40172b:	e9 d0 fe ff ff       	jmpq   401600 <_init+0x20>

0000000000401730 <_ZNSsD1Ev@plt>:
  401730:	ff 25 72 29 21 00    	jmpq   *0x212972(%rip)        # 6140a8 <_GLOBAL_OFFSET_TABLE_+0xa8>
  401736:	68 12 00 00 00       	pushq  $0x12
  40173b:	e9 c0 fe ff ff       	jmpq   401600 <_init+0x20>

0000000000401740 <_ZNSolsEm@plt>:
  401740:	ff 25 6a 29 21 00    	jmpq   *0x21296a(%rip)        # 6140b0 <_GLOBAL_OFFSET_TABLE_+0xb0>
  401746:	68 13 00 00 00       	pushq  $0x13
  40174b:	e9 b0 fe ff ff       	jmpq   401600 <_init+0x20>

0000000000401750 <pthread_self@plt>:
  401750:	ff 25 62 29 21 00    	jmpq   *0x212962(%rip)        # 6140b8 <_GLOBAL_OFFSET_TABLE_+0xb8>
  401756:	68 14 00 00 00       	pushq  $0x14
  40175b:	e9 a0 fe ff ff       	jmpq   401600 <_init+0x20>

0000000000401760 <_ZNSsC1EPKcRKSaIcE@plt>:
  401760:	ff 25 5a 29 21 00    	jmpq   *0x21295a(%rip)        # 6140c0 <_GLOBAL_OFFSET_TABLE_+0xc0>
  401766:	68 15 00 00 00       	pushq  $0x15
  40176b:	e9 90 fe ff ff       	jmpq   401600 <_init+0x20>

0000000000401770 <_ZNSt6thread4joinEv@plt>:
  401770:	ff 25 52 29 21 00    	jmpq   *0x212952(%rip)        # 6140c8 <_GLOBAL_OFFSET_TABLE_+0xc8>
  401776:	68 16 00 00 00       	pushq  $0x16
  40177b:	e9 80 fe ff ff       	jmpq   401600 <_init+0x20>

0000000000401780 <_ZSt9terminatev@plt>:
  401780:	ff 25 4a 29 21 00    	jmpq   *0x21294a(%rip)        # 6140d0 <_GLOBAL_OFFSET_TABLE_+0xd0>
  401786:	68 17 00 00 00       	pushq  $0x17
  40178b:	e9 70 fe ff ff       	jmpq   401600 <_init+0x20>

0000000000401790 <_ZNSt14basic_ofstreamIcSt11char_traitsIcEED1Ev@plt>:
  401790:	ff 25 42 29 21 00    	jmpq   *0x212942(%rip)        # 6140d8 <_GLOBAL_OFFSET_TABLE_+0xd8>
  401796:	68 18 00 00 00       	pushq  $0x18
  40179b:	e9 60 fe ff ff       	jmpq   401600 <_init+0x20>

00000000004017a0 <__cxa_pure_virtual@plt>:
  4017a0:	ff 25 3a 29 21 00    	jmpq   *0x21293a(%rip)        # 6140e0 <_GLOBAL_OFFSET_TABLE_+0xe0>
  4017a6:	68 19 00 00 00       	pushq  $0x19
  4017ab:	e9 50 fe ff ff       	jmpq   401600 <_init+0x20>

00000000004017b0 <_ZNSt14basic_ofstreamIcSt11char_traitsIcEE5closeEv@plt>:
  4017b0:	ff 25 32 29 21 00    	jmpq   *0x212932(%rip)        # 6140e8 <_GLOBAL_OFFSET_TABLE_+0xe8>
  4017b6:	68 1a 00 00 00       	pushq  $0x1a
  4017bb:	e9 40 fe ff ff       	jmpq   401600 <_init+0x20>

00000000004017c0 <memmove@plt>:
  4017c0:	ff 25 2a 29 21 00    	jmpq   *0x21292a(%rip)        # 6140f0 <_GLOBAL_OFFSET_TABLE_+0xf0>
  4017c6:	68 1b 00 00 00       	pushq  $0x1b
  4017cb:	e9 30 fe ff ff       	jmpq   401600 <_init+0x20>

00000000004017d0 <pthread_equal@plt>:
  4017d0:	ff 25 22 29 21 00    	jmpq   *0x212922(%rip)        # 6140f8 <_GLOBAL_OFFSET_TABLE_+0xf8>
  4017d6:	68 1c 00 00 00       	pushq  $0x1c
  4017db:	e9 20 fe ff ff       	jmpq   401600 <_init+0x20>

00000000004017e0 <_ZStlsIcSt11char_traitsIcESaIcEERSt13basic_ostreamIT_T0_ES7_RKSbIS4_S5_T1_E@plt>:
  4017e0:	ff 25 1a 29 21 00    	jmpq   *0x21291a(%rip)        # 614100 <_GLOBAL_OFFSET_TABLE_+0x100>
  4017e6:	68 1d 00 00 00       	pushq  $0x1d
  4017eb:	e9 10 fe ff ff       	jmpq   401600 <_init+0x20>

00000000004017f0 <__stack_chk_fail@plt>:
  4017f0:	ff 25 12 29 21 00    	jmpq   *0x212912(%rip)        # 614108 <_GLOBAL_OFFSET_TABLE_+0x108>
  4017f6:	68 1e 00 00 00       	pushq  $0x1e
  4017fb:	e9 00 fe ff ff       	jmpq   401600 <_init+0x20>

0000000000401800 <strcmp@plt>:
  401800:	ff 25 0a 29 21 00    	jmpq   *0x21290a(%rip)        # 614110 <_GLOBAL_OFFSET_TABLE_+0x110>
  401806:	68 1f 00 00 00       	pushq  $0x1f
  40180b:	e9 f0 fd ff ff       	jmpq   401600 <_init+0x20>

0000000000401810 <__cxa_allocate_exception@plt>:
  401810:	ff 25 02 29 21 00    	jmpq   *0x212902(%rip)        # 614118 <_GLOBAL_OFFSET_TABLE_+0x118>
  401816:	68 20 00 00 00       	pushq  $0x20
  40181b:	e9 e0 fd ff ff       	jmpq   401600 <_init+0x20>

0000000000401820 <_ZNSaIcED1Ev@plt>:
  401820:	ff 25 fa 28 21 00    	jmpq   *0x2128fa(%rip)        # 614120 <_GLOBAL_OFFSET_TABLE_+0x120>
  401826:	68 21 00 00 00       	pushq  $0x21
  40182b:	e9 d0 fd ff ff       	jmpq   401600 <_init+0x20>

0000000000401830 <__cxa_free_exception@plt>:
  401830:	ff 25 f2 28 21 00    	jmpq   *0x2128f2(%rip)        # 614128 <_GLOBAL_OFFSET_TABLE_+0x128>
  401836:	68 22 00 00 00       	pushq  $0x22
  40183b:	e9 c0 fd ff ff       	jmpq   401600 <_init+0x20>

0000000000401840 <_ZNSt13runtime_errorD1Ev@plt>:
  401840:	ff 25 ea 28 21 00    	jmpq   *0x2128ea(%rip)        # 614130 <_GLOBAL_OFFSET_TABLE_+0x130>
  401846:	68 23 00 00 00       	pushq  $0x23
  40184b:	e9 b0 fd ff ff       	jmpq   401600 <_init+0x20>

0000000000401850 <_ZdaPv@plt>:
  401850:	ff 25 e2 28 21 00    	jmpq   *0x2128e2(%rip)        # 614138 <_GLOBAL_OFFSET_TABLE_+0x138>
  401856:	68 24 00 00 00       	pushq  $0x24
  40185b:	e9 a0 fd ff ff       	jmpq   401600 <_init+0x20>

0000000000401860 <__cxa_throw@plt>:
  401860:	ff 25 da 28 21 00    	jmpq   *0x2128da(%rip)        # 614140 <_GLOBAL_OFFSET_TABLE_+0x140>
  401866:	68 25 00 00 00       	pushq  $0x25
  40186b:	e9 90 fd ff ff       	jmpq   401600 <_init+0x20>

0000000000401870 <_ZNSolsEPFRSoS_E@plt>:
  401870:	ff 25 d2 28 21 00    	jmpq   *0x2128d2(%rip)        # 614148 <_GLOBAL_OFFSET_TABLE_+0x148>
  401876:	68 26 00 00 00       	pushq  $0x26
  40187b:	e9 80 fd ff ff       	jmpq   401600 <_init+0x20>

0000000000401880 <_ZNSt14basic_ofstreamIcSt11char_traitsIcEEC1Ev@plt>:
  401880:	ff 25 ca 28 21 00    	jmpq   *0x2128ca(%rip)        # 614150 <_GLOBAL_OFFSET_TABLE_+0x150>
  401886:	68 27 00 00 00       	pushq  $0x27
  40188b:	e9 70 fd ff ff       	jmpq   401600 <_init+0x20>

0000000000401890 <__cxa_end_catch@plt>:
  401890:	ff 25 c2 28 21 00    	jmpq   *0x2128c2(%rip)        # 614158 <_GLOBAL_OFFSET_TABLE_+0x158>
  401896:	68 28 00 00 00       	pushq  $0x28
  40189b:	e9 60 fd ff ff       	jmpq   401600 <_init+0x20>

00000000004018a0 <_ZSt17__throw_bad_allocv@plt>:
  4018a0:	ff 25 ba 28 21 00    	jmpq   *0x2128ba(%rip)        # 614160 <_GLOBAL_OFFSET_TABLE_+0x160>
  4018a6:	68 29 00 00 00       	pushq  $0x29
  4018ab:	e9 50 fd ff ff       	jmpq   401600 <_init+0x20>

00000000004018b0 <_ZSt4endlIcSt11char_traitsIcEERSt13basic_ostreamIT_T0_ES6_@plt>:
  4018b0:	ff 25 b2 28 21 00    	jmpq   *0x2128b2(%rip)        # 614168 <_GLOBAL_OFFSET_TABLE_+0x168>
  4018b6:	68 2a 00 00 00       	pushq  $0x2a
  4018bb:	e9 40 fd ff ff       	jmpq   401600 <_init+0x20>

00000000004018c0 <__pthread_key_create@plt>:
  4018c0:	ff 25 aa 28 21 00    	jmpq   *0x2128aa(%rip)        # 614170 <_GLOBAL_OFFSET_TABLE_+0x170>
  4018c6:	68 2b 00 00 00       	pushq  $0x2b
  4018cb:	e9 30 fd ff ff       	jmpq   401600 <_init+0x20>

00000000004018d0 <__cxa_begin_catch@plt>:
  4018d0:	ff 25 a2 28 21 00    	jmpq   *0x2128a2(%rip)        # 614178 <_GLOBAL_OFFSET_TABLE_+0x178>
  4018d6:	68 2c 00 00 00       	pushq  $0x2c
  4018db:	e9 20 fd ff ff       	jmpq   401600 <_init+0x20>

00000000004018e0 <_ZNSt6chrono3_V212steady_clock3nowEv@plt>:
  4018e0:	ff 25 9a 28 21 00    	jmpq   *0x21289a(%rip)        # 614180 <_GLOBAL_OFFSET_TABLE_+0x180>
  4018e6:	68 2d 00 00 00       	pushq  $0x2d
  4018eb:	e9 10 fd ff ff       	jmpq   401600 <_init+0x20>

00000000004018f0 <_ZNSaIcEC1Ev@plt>:
  4018f0:	ff 25 92 28 21 00    	jmpq   *0x212892(%rip)        # 614188 <_GLOBAL_OFFSET_TABLE_+0x188>
  4018f6:	68 2e 00 00 00       	pushq  $0x2e
  4018fb:	e9 00 fd ff ff       	jmpq   401600 <_init+0x20>

0000000000401900 <__gxx_personality_v0@plt>:
  401900:	ff 25 8a 28 21 00    	jmpq   *0x21288a(%rip)        # 614190 <_GLOBAL_OFFSET_TABLE_+0x190>
  401906:	68 2f 00 00 00       	pushq  $0x2f
  40190b:	e9 f0 fc ff ff       	jmpq   401600 <_init+0x20>

0000000000401910 <_Znwm@plt>:
  401910:	ff 25 82 28 21 00    	jmpq   *0x212882(%rip)        # 614198 <_GLOBAL_OFFSET_TABLE_+0x198>
  401916:	68 30 00 00 00       	pushq  $0x30
  40191b:	e9 e0 fc ff ff       	jmpq   401600 <_init+0x20>

0000000000401920 <_Unwind_Resume@plt>:
  401920:	ff 25 7a 28 21 00    	jmpq   *0x21287a(%rip)        # 6141a0 <_GLOBAL_OFFSET_TABLE_+0x1a0>
  401926:	68 31 00 00 00       	pushq  $0x31
  40192b:	e9 d0 fc ff ff       	jmpq   401600 <_init+0x20>

0000000000401930 <sqrt@plt>:
  401930:	ff 25 72 28 21 00    	jmpq   *0x212872(%rip)        # 6141a8 <_GLOBAL_OFFSET_TABLE_+0x1a8>
  401936:	68 32 00 00 00       	pushq  $0x32
  40193b:	e9 c0 fc ff ff       	jmpq   401600 <_init+0x20>

0000000000401940 <pthread_setaffinity_np@plt>:
  401940:	ff 25 6a 28 21 00    	jmpq   *0x21286a(%rip)        # 6141b0 <_GLOBAL_OFFSET_TABLE_+0x1b0>
  401946:	68 33 00 00 00       	pushq  $0x33
  40194b:	e9 b0 fc ff ff       	jmpq   401600 <_init+0x20>

Disassembly of section .text:

0000000000401950 <_start>:
  401950:	31 ed                	xor    %ebp,%ebp
  401952:	49 89 d1             	mov    %rdx,%r9
  401955:	5e                   	pop    %rsi
  401956:	48 89 e2             	mov    %rsp,%rdx
  401959:	48 83 e4 f0          	and    $0xfffffffffffffff0,%rsp
  40195d:	50                   	push   %rax
  40195e:	54                   	push   %rsp
  40195f:	49 c7 c0 60 bb 40 00 	mov    $0x40bb60,%r8
  401966:	48 c7 c1 f0 ba 40 00 	mov    $0x40baf0,%rcx
  40196d:	48 c7 c7 f3 27 40 00 	mov    $0x4027f3,%rdi
  401974:	e8 27 fd ff ff       	callq  4016a0 <__libc_start_main@plt>
  401979:	f4                   	hlt    
  40197a:	66 0f 1f 44 00 00    	nopw   0x0(%rax,%rax,1)

0000000000401980 <deregister_tm_clones>:
  401980:	b8 cf 41 61 00       	mov    $0x6141cf,%eax
  401985:	55                   	push   %rbp
  401986:	48 2d c8 41 61 00    	sub    $0x6141c8,%rax
  40198c:	48 83 f8 0e          	cmp    $0xe,%rax
  401990:	48 89 e5             	mov    %rsp,%rbp
  401993:	77 02                	ja     401997 <deregister_tm_clones+0x17>
  401995:	5d                   	pop    %rbp
  401996:	c3                   	retq   
  401997:	b8 00 00 00 00       	mov    $0x0,%eax
  40199c:	48 85 c0             	test   %rax,%rax
  40199f:	74 f4                	je     401995 <deregister_tm_clones+0x15>
  4019a1:	5d                   	pop    %rbp
  4019a2:	bf c8 41 61 00       	mov    $0x6141c8,%edi
  4019a7:	ff e0                	jmpq   *%rax
  4019a9:	0f 1f 80 00 00 00 00 	nopl   0x0(%rax)

00000000004019b0 <register_tm_clones>:
  4019b0:	b8 c8 41 61 00       	mov    $0x6141c8,%eax
  4019b5:	55                   	push   %rbp
  4019b6:	48 2d c8 41 61 00    	sub    $0x6141c8,%rax
  4019bc:	48 c1 f8 03          	sar    $0x3,%rax
  4019c0:	48 89 e5             	mov    %rsp,%rbp
  4019c3:	48 89 c2             	mov    %rax,%rdx
  4019c6:	48 c1 ea 3f          	shr    $0x3f,%rdx
  4019ca:	48 01 d0             	add    %rdx,%rax
  4019cd:	48 d1 f8             	sar    %rax
  4019d0:	75 02                	jne    4019d4 <register_tm_clones+0x24>
  4019d2:	5d                   	pop    %rbp
  4019d3:	c3                   	retq   
  4019d4:	ba 00 00 00 00       	mov    $0x0,%edx
  4019d9:	48 85 d2             	test   %rdx,%rdx
  4019dc:	74 f4                	je     4019d2 <register_tm_clones+0x22>
  4019de:	5d                   	pop    %rbp
  4019df:	48 89 c6             	mov    %rax,%rsi
  4019e2:	bf c8 41 61 00       	mov    $0x6141c8,%edi
  4019e7:	ff e2                	jmpq   *%rdx
  4019e9:	0f 1f 80 00 00 00 00 	nopl   0x0(%rax)

00000000004019f0 <__do_global_dtors_aux>:
  4019f0:	80 3d e1 29 21 00 00 	cmpb   $0x0,0x2129e1(%rip)        # 6143d8 <completed.6972>
  4019f7:	75 11                	jne    401a0a <__do_global_dtors_aux+0x1a>
  4019f9:	55                   	push   %rbp
  4019fa:	48 89 e5             	mov    %rsp,%rbp
  4019fd:	e8 7e ff ff ff       	callq  401980 <deregister_tm_clones>
  401a02:	5d                   	pop    %rbp
  401a03:	c6 05 ce 29 21 00 01 	movb   $0x1,0x2129ce(%rip)        # 6143d8 <completed.6972>
  401a0a:	f3 c3                	repz retq 
  401a0c:	0f 1f 40 00          	nopl   0x0(%rax)

0000000000401a10 <frame_dummy>:
  401a10:	48 83 3d b8 23 21 00 	cmpq   $0x0,0x2123b8(%rip)        # 613dd0 <__JCR_END__>
  401a17:	00 
  401a18:	74 1e                	je     401a38 <frame_dummy+0x28>
  401a1a:	b8 00 00 00 00       	mov    $0x0,%eax
  401a1f:	48 85 c0             	test   %rax,%rax
  401a22:	74 14                	je     401a38 <frame_dummy+0x28>
  401a24:	55                   	push   %rbp
  401a25:	bf d0 3d 61 00       	mov    $0x613dd0,%edi
  401a2a:	48 89 e5             	mov    %rsp,%rbp
  401a2d:	ff d0                	callq  *%rax
  401a2f:	5d                   	pop    %rbp
  401a30:	e9 7b ff ff ff       	jmpq   4019b0 <register_tm_clones>
  401a35:	0f 1f 00             	nopl   (%rax)
  401a38:	e9 73 ff ff ff       	jmpq   4019b0 <register_tm_clones>
  401a3d:	90                   	nop

0000000000401a3e <_ZN7barrier8internal8xorshiftC1Ev>:

	static const xorshift::state_type s_default_seed = {
		123456789, 362436069, 521288629, 88675123
	};

	xorshift::xorshift(void)
  401a3e:	55                   	push   %rbp
  401a3f:	48 89 e5             	mov    %rsp,%rbp
  401a42:	48 89 7d f8          	mov    %rdi,-0x8(%rbp)
		: state_(s_default_seed)
  401a46:	48 8b 45 f8          	mov    -0x8(%rbp),%rax
  401a4a:	c7 00 15 cd 5b 07    	movl   $0x75bcd15,(%rax)
  401a50:	48 8b 45 f8          	mov    -0x8(%rbp),%rax
  401a54:	c7 40 04 e5 55 9a 15 	movl   $0x159a55e5,0x4(%rax)
  401a5b:	48 8b 45 f8          	mov    -0x8(%rbp),%rax
  401a5f:	c7 40 08 b5 3b 12 1f 	movl   $0x1f123bb5,0x8(%rax)
  401a66:	48 8b 45 f8          	mov    -0x8(%rbp),%rax
  401a6a:	c7 40 0c 33 13 49 05 	movl   $0x5491333,0xc(%rax)
	{}
  401a71:	5d                   	pop    %rbp
  401a72:	c3                   	retq   
  401a73:	90                   	nop

0000000000401a74 <_ZN7barrier8internal8xorshiftC1ERKNS1_10state_typeE>:

	xorshift::xorshift(const state_type &seed)
  401a74:	55                   	push   %rbp
  401a75:	48 89 e5             	mov    %rsp,%rbp
  401a78:	48 89 7d f8          	mov    %rdi,-0x8(%rbp)
  401a7c:	48 89 75 f0          	mov    %rsi,-0x10(%rbp)
		: state_(seed)
  401a80:	48 8b 4d f8          	mov    -0x8(%rbp),%rcx
  401a84:	48 8b 45 f0          	mov    -0x10(%rbp),%rax
  401a88:	48 8b 50 08          	mov    0x8(%rax),%rdx
  401a8c:	48 8b 00             	mov    (%rax),%rax
  401a8f:	48 89 01             	mov    %rax,(%rcx)
  401a92:	48 89 51 08          	mov    %rdx,0x8(%rcx)
	{}
  401a96:	5d                   	pop    %rbp
  401a97:	c3                   	retq   

0000000000401a98 <_ZN7barrier8internal8xorshiftC1Ej>:

	xorshift::xorshift(result_type r)
  401a98:	55                   	push   %rbp
  401a99:	48 89 e5             	mov    %rsp,%rbp
  401a9c:	48 89 7d f8          	mov    %rdi,-0x8(%rbp)
  401aa0:	89 75 f4             	mov    %esi,-0xc(%rbp)
		: state_({s_default_seed.x, s_default_seed.y, s_default_seed.z, r})
  401aa3:	ba 15 cd 5b 07       	mov    $0x75bcd15,%edx
  401aa8:	48 8b 45 f8          	mov    -0x8(%rbp),%rax
  401aac:	89 10                	mov    %edx,(%rax)
  401aae:	ba e5 55 9a 15       	mov    $0x159a55e5,%edx
  401ab3:	48 8b 45 f8          	mov    -0x8(%rbp),%rax
  401ab7:	89 50 04             	mov    %edx,0x4(%rax)
  401aba:	ba b5 3b 12 1f       	mov    $0x1f123bb5,%edx
  401abf:	48 8b 45 f8          	mov    -0x8(%rbp),%rax
  401ac3:	89 50 08             	mov    %edx,0x8(%rax)
  401ac6:	48 8b 45 f8          	mov    -0x8(%rbp),%rax
  401aca:	8b 55 f4             	mov    -0xc(%rbp),%edx
  401acd:	89 50 0c             	mov    %edx,0xc(%rax)
	{}
  401ad0:	5d                   	pop    %rbp
  401ad1:	c3                   	retq   

0000000000401ad2 <_ZN7barrier8internal8xorshift4seedERKNS1_10state_typeE>:

	void xorshift::seed(const state_type &seed) {
  401ad2:	55                   	push   %rbp
  401ad3:	48 89 e5             	mov    %rsp,%rbp
  401ad6:	48 83 ec 10          	sub    $0x10,%rsp
  401ada:	48 89 7d f8          	mov    %rdi,-0x8(%rbp)
  401ade:	48 89 75 f0          	mov    %rsi,-0x10(%rbp)
		state(seed);
  401ae2:	48 8b 55 f0          	mov    -0x10(%rbp),%rdx
  401ae6:	48 8b 45 f8          	mov    -0x8(%rbp),%rax
  401aea:	48 89 d6             	mov    %rdx,%rsi
  401aed:	48 89 c7             	mov    %rax,%rdi
  401af0:	e8 ad 00 00 00       	callq  401ba2 <_ZN7barrier8internal8xorshift5stateERKNS1_10state_typeE>
	}
  401af5:	c9                   	leaveq 
  401af6:	c3                   	retq   
  401af7:	90                   	nop

0000000000401af8 <_ZN7barrier8internal8xorshift4seedEv>:

	void xorshift::seed(void) {
  401af8:	55                   	push   %rbp
  401af9:	48 89 e5             	mov    %rsp,%rbp
  401afc:	48 83 ec 10          	sub    $0x10,%rsp
  401b00:	48 89 7d f8          	mov    %rdi,-0x8(%rbp)
		state(s_default_seed);
  401b04:	48 8b 45 f8          	mov    -0x8(%rbp),%rax
  401b08:	be b0 bc 40 00       	mov    $0x40bcb0,%esi
  401b0d:	48 89 c7             	mov    %rax,%rdi
  401b10:	e8 8d 00 00 00       	callq  401ba2 <_ZN7barrier8internal8xorshift5stateERKNS1_10state_typeE>
	}
  401b15:	c9                   	leaveq 
  401b16:	c3                   	retq   
  401b17:	90                   	nop

0000000000401b18 <_ZN7barrier8internal8xorshift4seedEj>:

	void xorshift::seed(result_type r) {
  401b18:	55                   	push   %rbp
  401b19:	48 89 e5             	mov    %rsp,%rbp
  401b1c:	48 83 ec 20          	sub    $0x20,%rsp
  401b20:	48 89 7d e8          	mov    %rdi,-0x18(%rbp)
  401b24:	89 75 e4             	mov    %esi,-0x1c(%rbp)
		auto seed = s_default_seed;
  401b27:	c7 45 f0 15 cd 5b 07 	movl   $0x75bcd15,-0x10(%rbp)
  401b2e:	c7 45 f4 e5 55 9a 15 	movl   $0x159a55e5,-0xc(%rbp)
  401b35:	c7 45 f8 b5 3b 12 1f 	movl   $0x1f123bb5,-0x8(%rbp)
  401b3c:	c7 45 fc 33 13 49 05 	movl   $0x5491333,-0x4(%rbp)
		seed.w = r;
  401b43:	8b 45 e4             	mov    -0x1c(%rbp),%eax
  401b46:	89 45 fc             	mov    %eax,-0x4(%rbp)
		state(seed);
  401b49:	48 8d 55 f0          	lea    -0x10(%rbp),%rdx
  401b4d:	48 8b 45 e8          	mov    -0x18(%rbp),%rax
  401b51:	48 89 d6             	mov    %rdx,%rsi
  401b54:	48 89 c7             	mov    %rax,%rdi
  401b57:	e8 46 00 00 00       	callq  401ba2 <_ZN7barrier8internal8xorshift5stateERKNS1_10state_typeE>
	}
  401b5c:	c9                   	leaveq 
  401b5d:	c3                   	retq   

0000000000401b5e <_ZN7barrier8internal8xorshift7discardEy>:

	void xorshift::discard(unsigned long long z) {
  401b5e:	55                   	push   %rbp
  401b5f:	48 89 e5             	mov    %rsp,%rbp
  401b62:	48 83 ec 10          	sub    $0x10,%rsp
  401b66:	48 89 7d f8          	mov    %rdi,-0x8(%rbp)
  401b6a:	48 89 75 f0          	mov    %rsi,-0x10(%rbp)
		while (z--)
  401b6e:	eb 0c                	jmp    401b7c <_ZN7barrier8internal8xorshift7discardEy+0x1e>
			(*this)();
  401b70:	48 8b 45 f8          	mov    -0x8(%rbp),%rax
  401b74:	48 89 c7             	mov    %rax,%rdi
  401b77:	e8 62 00 00 00       	callq  401bde <_ZN7barrier8internal8xorshiftclEv>
		seed.w = r;
		state(seed);
	}

	void xorshift::discard(unsigned long long z) {
		while (z--)
  401b7c:	48 8b 45 f0          	mov    -0x10(%rbp),%rax
  401b80:	48 8d 50 ff          	lea    -0x1(%rax),%rdx
  401b84:	48 89 55 f0          	mov    %rdx,-0x10(%rbp)
  401b88:	48 85 c0             	test   %rax,%rax
  401b8b:	0f 95 c0             	setne  %al
  401b8e:	84 c0                	test   %al,%al
  401b90:	75 de                	jne    401b70 <_ZN7barrier8internal8xorshift7discardEy+0x12>
			(*this)();
	}
  401b92:	c9                   	leaveq 
  401b93:	c3                   	retq   

0000000000401b94 <_ZNK7barrier8internal8xorshift5stateEv>:

	const xorshift::state_type &xorshift::state(void) const {
  401b94:	55                   	push   %rbp
  401b95:	48 89 e5             	mov    %rsp,%rbp
  401b98:	48 89 7d f8          	mov    %rdi,-0x8(%rbp)
		return state_;
  401b9c:	48 8b 45 f8          	mov    -0x8(%rbp),%rax
	}
  401ba0:	5d                   	pop    %rbp
  401ba1:	c3                   	retq   

0000000000401ba2 <_ZN7barrier8internal8xorshift5stateERKNS1_10state_typeE>:

	void xorshift::state(const state_type &state) {
  401ba2:	55                   	push   %rbp
  401ba3:	48 89 e5             	mov    %rsp,%rbp
  401ba6:	48 89 7d f8          	mov    %rdi,-0x8(%rbp)
  401baa:	48 89 75 f0          	mov    %rsi,-0x10(%rbp)
		state_ = state;
  401bae:	48 8b 4d f8          	mov    -0x8(%rbp),%rcx
  401bb2:	48 8b 45 f0          	mov    -0x10(%rbp),%rax
  401bb6:	48 8b 50 08          	mov    0x8(%rax),%rdx
  401bba:	48 8b 00             	mov    (%rax),%rax
  401bbd:	48 89 01             	mov    %rax,(%rcx)
  401bc0:	48 89 51 08          	mov    %rdx,0x8(%rcx)
	}
  401bc4:	5d                   	pop    %rbp
  401bc5:	c3                   	retq   

0000000000401bc6 <_ZN7barrier8internal8xorshift3minEv>:

	xorshift::result_type xorshift::min(void) {
  401bc6:	55                   	push   %rbp
  401bc7:	48 89 e5             	mov    %rsp,%rbp
		return std::numeric_limits<result_type>::min();
  401bca:	e8 be 01 00 00       	callq  401d8d <_ZNSt14numeric_limitsIjE3minEv>
	}
  401bcf:	5d                   	pop    %rbp
  401bd0:	c3                   	retq   
  401bd1:	90                   	nop

0000000000401bd2 <_ZN7barrier8internal8xorshift3maxEv>:

	xorshift::result_type xorshift::max(void) {
  401bd2:	55                   	push   %rbp
  401bd3:	48 89 e5             	mov    %rsp,%rbp
		return std::numeric_limits<result_type>::max();
  401bd6:	e8 bd 01 00 00       	callq  401d98 <_ZNSt14numeric_limitsIjE3maxEv>
	}
  401bdb:	5d                   	pop    %rbp
  401bdc:	c3                   	retq   
  401bdd:	90                   	nop

0000000000401bde <_ZN7barrier8internal8xorshiftclEv>:

	xorshift::result_type xorshift::operator()(void) {
  401bde:	55                   	push   %rbp
  401bdf:	48 89 e5             	mov    %rsp,%rbp
  401be2:	48 89 7d e8          	mov    %rdi,-0x18(%rbp)
		result_type t = state_.x ^ (state_.x << 15);
  401be6:	48 8b 45 e8          	mov    -0x18(%rbp),%rax
  401bea:	8b 10                	mov    (%rax),%edx
  401bec:	48 8b 45 e8          	mov    -0x18(%rbp),%rax
  401bf0:	8b 00                	mov    (%rax),%eax
  401bf2:	c1 e0 0f             	shl    $0xf,%eax
  401bf5:	31 d0                	xor    %edx,%eax
  401bf7:	89 45 fc             	mov    %eax,-0x4(%rbp)
		state_.x = state_.y; state_.y = state_.z; state_.z = state_.w;
  401bfa:	48 8b 45 e8          	mov    -0x18(%rbp),%rax
  401bfe:	8b 50 04             	mov    0x4(%rax),%edx
  401c01:	48 8b 45 e8          	mov    -0x18(%rbp),%rax
  401c05:	89 10                	mov    %edx,(%rax)
  401c07:	48 8b 45 e8          	mov    -0x18(%rbp),%rax
  401c0b:	8b 50 08             	mov    0x8(%rax),%edx
  401c0e:	48 8b 45 e8          	mov    -0x18(%rbp),%rax
  401c12:	89 50 04             	mov    %edx,0x4(%rax)
  401c15:	48 8b 45 e8          	mov    -0x18(%rbp),%rax
  401c19:	8b 50 0c             	mov    0xc(%rax),%edx
  401c1c:	48 8b 45 e8          	mov    -0x18(%rbp),%rax
  401c20:	89 50 08             	mov    %edx,0x8(%rax)
		return state_.w = state_.w ^ (state_.w >> 21) ^ (t ^ (t >> 4));
  401c23:	48 8b 45 e8          	mov    -0x18(%rbp),%rax
  401c27:	8b 50 0c             	mov    0xc(%rax),%edx
  401c2a:	48 8b 45 e8          	mov    -0x18(%rbp),%rax
  401c2e:	8b 40 0c             	mov    0xc(%rax),%eax
  401c31:	c1 e8 15             	shr    $0x15,%eax
  401c34:	31 c2                	xor    %eax,%edx
  401c36:	8b 45 fc             	mov    -0x4(%rbp),%eax
  401c39:	c1 e8 04             	shr    $0x4,%eax
  401c3c:	33 45 fc             	xor    -0x4(%rbp),%eax
  401c3f:	31 c2                	xor    %eax,%edx
  401c41:	48 8b 45 e8          	mov    -0x18(%rbp),%rax
  401c45:	89 50 0c             	mov    %edx,0xc(%rax)
  401c48:	48 8b 45 e8          	mov    -0x18(%rbp),%rax
  401c4c:	8b 40 0c             	mov    0xc(%rax),%eax
	}
  401c4f:	5d                   	pop    %rbp
  401c50:	c3                   	retq   

0000000000401c51 <_ZN7barrier8internaleqERKNS0_8xorshift10state_typeES4_>:

	static bool operator==(
		const xorshift::state_type &lhs, const xorshift::state_type &rhs)
	{
  401c51:	55                   	push   %rbp
  401c52:	48 89 e5             	mov    %rsp,%rbp
  401c55:	48 89 7d f8          	mov    %rdi,-0x8(%rbp)
  401c59:	48 89 75 f0          	mov    %rsi,-0x10(%rbp)
		return lhs.x == rhs.x
  401c5d:	48 8b 45 f8          	mov    -0x8(%rbp),%rax
  401c61:	8b 10                	mov    (%rax),%edx
  401c63:	48 8b 45 f0          	mov    -0x10(%rbp),%rax
  401c67:	8b 00                	mov    (%rax),%eax
			&& lhs.y == rhs.y
			&& lhs.z == rhs.z
			&& lhs.w == rhs.w;
  401c69:	39 c2                	cmp    %eax,%edx
  401c6b:	75 3d                	jne    401caa <_ZN7barrier8internaleqERKNS0_8xorshift10state_typeES4_+0x59>

	static bool operator==(
		const xorshift::state_type &lhs, const xorshift::state_type &rhs)
	{
		return lhs.x == rhs.x
			&& lhs.y == rhs.y
  401c6d:	48 8b 45 f8          	mov    -0x8(%rbp),%rax
  401c71:	8b 50 04             	mov    0x4(%rax),%edx
  401c74:	48 8b 45 f0          	mov    -0x10(%rbp),%rax
  401c78:	8b 40 04             	mov    0x4(%rax),%eax
  401c7b:	39 c2                	cmp    %eax,%edx
  401c7d:	75 2b                	jne    401caa <_ZN7barrier8internaleqERKNS0_8xorshift10state_typeES4_+0x59>
			&& lhs.z == rhs.z
  401c7f:	48 8b 45 f8          	mov    -0x8(%rbp),%rax
  401c83:	8b 50 08             	mov    0x8(%rax),%edx
  401c86:	48 8b 45 f0          	mov    -0x10(%rbp),%rax
  401c8a:	8b 40 08             	mov    0x8(%rax),%eax
  401c8d:	39 c2                	cmp    %eax,%edx
  401c8f:	75 19                	jne    401caa <_ZN7barrier8internaleqERKNS0_8xorshift10state_typeES4_+0x59>
			&& lhs.w == rhs.w;
  401c91:	48 8b 45 f8          	mov    -0x8(%rbp),%rax
  401c95:	8b 50 0c             	mov    0xc(%rax),%edx
  401c98:	48 8b 45 f0          	mov    -0x10(%rbp),%rax
  401c9c:	8b 40 0c             	mov    0xc(%rax),%eax
  401c9f:	39 c2                	cmp    %eax,%edx
  401ca1:	75 07                	jne    401caa <_ZN7barrier8internaleqERKNS0_8xorshift10state_typeES4_+0x59>
  401ca3:	b8 01 00 00 00       	mov    $0x1,%eax
  401ca8:	eb 05                	jmp    401caf <_ZN7barrier8internaleqERKNS0_8xorshift10state_typeES4_+0x5e>
  401caa:	b8 00 00 00 00       	mov    $0x0,%eax
	}
  401caf:	5d                   	pop    %rbp
  401cb0:	c3                   	retq   

0000000000401cb1 <_ZN7barrier8internalneERKNS0_8xorshift10state_typeES4_>:

	static bool operator!=(
		const xorshift::state_type &lhs, const xorshift::state_type &rhs)
	{
  401cb1:	55                   	push   %rbp
  401cb2:	48 89 e5             	mov    %rsp,%rbp
  401cb5:	48 89 7d f8          	mov    %rdi,-0x8(%rbp)
  401cb9:	48 89 75 f0          	mov    %rsi,-0x10(%rbp)
		return lhs.x != rhs.x
  401cbd:	48 8b 45 f8          	mov    -0x8(%rbp),%rax
  401cc1:	8b 10                	mov    (%rax),%edx
  401cc3:	48 8b 45 f0          	mov    -0x10(%rbp),%rax
  401cc7:	8b 00                	mov    (%rax),%eax
			|| lhs.y != rhs.y
			|| lhs.z != rhs.z
			|| lhs.w != rhs.w;
  401cc9:	39 c2                	cmp    %eax,%edx
  401ccb:	75 36                	jne    401d03 <_ZN7barrier8internalneERKNS0_8xorshift10state_typeES4_+0x52>

	static bool operator!=(
		const xorshift::state_type &lhs, const xorshift::state_type &rhs)
	{
		return lhs.x != rhs.x
			|| lhs.y != rhs.y
  401ccd:	48 8b 45 f8          	mov    -0x8(%rbp),%rax
  401cd1:	8b 50 04             	mov    0x4(%rax),%edx
  401cd4:	48 8b 45 f0          	mov    -0x10(%rbp),%rax
  401cd8:	8b 40 04             	mov    0x4(%rax),%eax
  401cdb:	39 c2                	cmp    %eax,%edx
  401cdd:	75 24                	jne    401d03 <_ZN7barrier8internalneERKNS0_8xorshift10state_typeES4_+0x52>
			|| lhs.z != rhs.z
  401cdf:	48 8b 45 f8          	mov    -0x8(%rbp),%rax
  401ce3:	8b 50 08             	mov    0x8(%rax),%edx
  401ce6:	48 8b 45 f0          	mov    -0x10(%rbp),%rax
  401cea:	8b 40 08             	mov    0x8(%rax),%eax
  401ced:	39 c2                	cmp    %eax,%edx
  401cef:	75 12                	jne    401d03 <_ZN7barrier8internalneERKNS0_8xorshift10state_typeES4_+0x52>
			|| lhs.w != rhs.w;
  401cf1:	48 8b 45 f8          	mov    -0x8(%rbp),%rax
  401cf5:	8b 50 0c             	mov    0xc(%rax),%edx
  401cf8:	48 8b 45 f0          	mov    -0x10(%rbp),%rax
  401cfc:	8b 40 0c             	mov    0xc(%rax),%eax
  401cff:	39 c2                	cmp    %eax,%edx
  401d01:	74 07                	je     401d0a <_ZN7barrier8internalneERKNS0_8xorshift10state_typeES4_+0x59>
  401d03:	b8 01 00 00 00       	mov    $0x1,%eax
  401d08:	eb 05                	jmp    401d0f <_ZN7barrier8internalneERKNS0_8xorshift10state_typeES4_+0x5e>
  401d0a:	b8 00 00 00 00       	mov    $0x0,%eax
	}
  401d0f:	5d                   	pop    %rbp
  401d10:	c3                   	retq   

0000000000401d11 <_ZN7barrier8internaleqERKNS0_8xorshiftES3_>:

	bool operator==(const xorshift &lhs, const xorshift &rhs) {
  401d11:	55                   	push   %rbp
  401d12:	48 89 e5             	mov    %rsp,%rbp
  401d15:	53                   	push   %rbx
  401d16:	48 83 ec 10          	sub    $0x10,%rsp
  401d1a:	48 89 7d f0          	mov    %rdi,-0x10(%rbp)
  401d1e:	48 89 75 e8          	mov    %rsi,-0x18(%rbp)
		return lhs.state() == rhs.state();
  401d22:	48 8b 45 e8          	mov    -0x18(%rbp),%rax
  401d26:	48 89 c7             	mov    %rax,%rdi
  401d29:	e8 66 fe ff ff       	callq  401b94 <_ZNK7barrier8internal8xorshift5stateEv>
  401d2e:	48 89 c3             	mov    %rax,%rbx
  401d31:	48 8b 45 f0          	mov    -0x10(%rbp),%rax
  401d35:	48 89 c7             	mov    %rax,%rdi
  401d38:	e8 57 fe ff ff       	callq  401b94 <_ZNK7barrier8internal8xorshift5stateEv>
  401d3d:	48 89 de             	mov    %rbx,%rsi
  401d40:	48 89 c7             	mov    %rax,%rdi
  401d43:	e8 09 ff ff ff       	callq  401c51 <_ZN7barrier8internaleqERKNS0_8xorshift10state_typeES4_>
	}
  401d48:	48 83 c4 10          	add    $0x10,%rsp
  401d4c:	5b                   	pop    %rbx
  401d4d:	5d                   	pop    %rbp
  401d4e:	c3                   	retq   

0000000000401d4f <_ZN7barrier8internalneERKNS0_8xorshiftES3_>:

	bool operator!=(const xorshift &lhs, const xorshift &rhs) {
  401d4f:	55                   	push   %rbp
  401d50:	48 89 e5             	mov    %rsp,%rbp
  401d53:	53                   	push   %rbx
  401d54:	48 83 ec 10          	sub    $0x10,%rsp
  401d58:	48 89 7d f0          	mov    %rdi,-0x10(%rbp)
  401d5c:	48 89 75 e8          	mov    %rsi,-0x18(%rbp)
		return lhs.state() != rhs.state();
  401d60:	48 8b 45 e8          	mov    -0x18(%rbp),%rax
  401d64:	48 89 c7             	mov    %rax,%rdi
  401d67:	e8 28 fe ff ff       	callq  401b94 <_ZNK7barrier8internal8xorshift5stateEv>
  401d6c:	48 89 c3             	mov    %rax,%rbx
  401d6f:	48 8b 45 f0          	mov    -0x10(%rbp),%rax
  401d73:	48 89 c7             	mov    %rax,%rdi
  401d76:	e8 19 fe ff ff       	callq  401b94 <_ZNK7barrier8internal8xorshift5stateEv>
  401d7b:	48 89 de             	mov    %rbx,%rsi
  401d7e:	48 89 c7             	mov    %rax,%rdi
  401d81:	e8 2b ff ff ff       	callq  401cb1 <_ZN7barrier8internalneERKNS0_8xorshift10state_typeES4_>
	}
  401d86:	48 83 c4 10          	add    $0x10,%rsp
  401d8a:	5b                   	pop    %rbx
  401d8b:	5d                   	pop    %rbp
  401d8c:	c3                   	retq   

0000000000401d8d <_ZNSt14numeric_limitsIjE3minEv>:
    struct numeric_limits<unsigned int>
    {
      static _GLIBCXX_USE_CONSTEXPR bool is_specialized = true;

      static _GLIBCXX_CONSTEXPR unsigned int 
      min() _GLIBCXX_USE_NOEXCEPT { return 0; }
  401d8d:	55                   	push   %rbp
  401d8e:	48 89 e5             	mov    %rsp,%rbp
  401d91:	b8 00 00 00 00       	mov    $0x0,%eax
  401d96:	5d                   	pop    %rbp
  401d97:	c3                   	retq   

0000000000401d98 <_ZNSt14numeric_limitsIjE3maxEv>:

      static _GLIBCXX_CONSTEXPR unsigned int 
      max() _GLIBCXX_USE_NOEXCEPT { return __INT_MAX__ * 2U + 1; }
  401d98:	55                   	push   %rbp
  401d99:	48 89 e5             	mov    %rsp,%rbp
  401d9c:	b8 ff ff ff ff       	mov    $0xffffffff,%eax
  401da1:	5d                   	pop    %rbp
  401da2:	c3                   	retq   
  401da3:	90                   	nop

0000000000401da4 <_ZL18__gthread_active_pv>:
# define GTHR_ACTIVE_PROXY	__gthrw_(pthread_cancel)
#endif

static inline int
__gthread_active_p (void)
{
  401da4:	55                   	push   %rbp
  401da5:	48 89 e5             	mov    %rsp,%rbp
  static void *const __gthread_active_ptr
    = __extension__ (void *) &GTHR_ACTIVE_PROXY;
  return __gthread_active_ptr != 0;
  401da8:	b8 c0 18 40 00       	mov    $0x4018c0,%eax
  401dad:	48 85 c0             	test   %rax,%rax
  401db0:	0f 95 c0             	setne  %al
  401db3:	0f b6 c0             	movzbl %al,%eax
}
  401db6:	5d                   	pop    %rbp
  401db7:	c3                   	retq   

0000000000401db8 <_ZL15__gthread_equalmm>:
  return __gthrw_(pthread_detach) (__threadid);
}

static inline int
__gthread_equal (__gthread_t __t1, __gthread_t __t2)
{
  401db8:	55                   	push   %rbp
  401db9:	48 89 e5             	mov    %rsp,%rbp
  401dbc:	48 83 ec 10          	sub    $0x10,%rsp
  401dc0:	48 89 7d f8          	mov    %rdi,-0x8(%rbp)
  401dc4:	48 89 75 f0          	mov    %rsi,-0x10(%rbp)
  return __gthrw_(pthread_equal) (__t1, __t2);
  401dc8:	48 8b 55 f0          	mov    -0x10(%rbp),%rdx
  401dcc:	48 8b 45 f8          	mov    -0x8(%rbp),%rax
  401dd0:	48 89 d6             	mov    %rdx,%rsi
  401dd3:	48 89 c7             	mov    %rax,%rdi
  401dd6:	e8 f5 f9 ff ff       	callq  4017d0 <pthread_equal@plt>
}
  401ddb:	c9                   	leaveq 
  401ddc:	c3                   	retq   

0000000000401ddd <_ZN9__gnu_cxxL18__exchange_and_addEPVii>:
  // __exchange_and_add_dispatch
  // __atomic_add_dispatch
#ifdef _GLIBCXX_ATOMIC_BUILTINS
  static inline _Atomic_word 
  __exchange_and_add(volatile _Atomic_word* __mem, int __val)
  { return __atomic_fetch_add(__mem, __val, __ATOMIC_ACQ_REL); }
  401ddd:	55                   	push   %rbp
  401dde:	48 89 e5             	mov    %rsp,%rbp
  401de1:	48 89 7d f8          	mov    %rdi,-0x8(%rbp)
  401de5:	89 75 f4             	mov    %esi,-0xc(%rbp)
  401de8:	8b 55 f4             	mov    -0xc(%rbp),%edx
  401deb:	48 8b 45 f8          	mov    -0x8(%rbp),%rax
  401def:	f0 0f c1 10          	lock xadd %edx,(%rax)
  401df3:	89 d0                	mov    %edx,%eax
  401df5:	5d                   	pop    %rbp
  401df6:	c3                   	retq   

0000000000401df7 <_ZN9__gnu_cxxL25__exchange_and_add_singleEPii>:
  __atomic_add(volatile _Atomic_word*, int) throw ();
#endif

  static inline _Atomic_word
  __exchange_and_add_single(_Atomic_word* __mem, int __val)
  {
  401df7:	55                   	push   %rbp
  401df8:	48 89 e5             	mov    %rsp,%rbp
  401dfb:	48 89 7d e8          	mov    %rdi,-0x18(%rbp)
  401dff:	89 75 e4             	mov    %esi,-0x1c(%rbp)
    _Atomic_word __result = *__mem;
  401e02:	48 8b 45 e8          	mov    -0x18(%rbp),%rax
  401e06:	8b 00                	mov    (%rax),%eax
  401e08:	89 45 fc             	mov    %eax,-0x4(%rbp)
    *__mem += __val;
  401e0b:	48 8b 45 e8          	mov    -0x18(%rbp),%rax
  401e0f:	8b 10                	mov    (%rax),%edx
  401e11:	8b 45 e4             	mov    -0x1c(%rbp),%eax
  401e14:	01 c2                	add    %eax,%edx
  401e16:	48 8b 45 e8          	mov    -0x18(%rbp),%rax
  401e1a:	89 10                	mov    %edx,(%rax)
    return __result;
  401e1c:	8b 45 fc             	mov    -0x4(%rbp),%eax
  }
  401e1f:	5d                   	pop    %rbp
  401e20:	c3                   	retq   

0000000000401e21 <_ZN9__gnu_cxxL27__exchange_and_add_dispatchEPii>:
  { *__mem += __val; }

  static inline _Atomic_word
  __attribute__ ((__unused__))
  __exchange_and_add_dispatch(_Atomic_word* __mem, int __val)
  {
  401e21:	55                   	push   %rbp
  401e22:	48 89 e5             	mov    %rsp,%rbp
  401e25:	48 83 ec 10          	sub    $0x10,%rsp
  401e29:	48 89 7d f8          	mov    %rdi,-0x8(%rbp)
  401e2d:	89 75 f4             	mov    %esi,-0xc(%rbp)
#ifdef __GTHREADS
    if (__gthread_active_p())
  401e30:	e8 6f ff ff ff       	callq  401da4 <_ZL18__gthread_active_pv>
  401e35:	85 c0                	test   %eax,%eax
  401e37:	0f 95 c0             	setne  %al
  401e3a:	84 c0                	test   %al,%al
  401e3c:	74 13                	je     401e51 <_ZN9__gnu_cxxL27__exchange_and_add_dispatchEPii+0x30>
      return __exchange_and_add(__mem, __val);
  401e3e:	8b 55 f4             	mov    -0xc(%rbp),%edx
  401e41:	48 8b 45 f8          	mov    -0x8(%rbp),%rax
  401e45:	89 d6                	mov    %edx,%esi
  401e47:	48 89 c7             	mov    %rax,%rdi
  401e4a:	e8 8e ff ff ff       	callq  401ddd <_ZN9__gnu_cxxL18__exchange_and_addEPVii>
  401e4f:	eb 11                	jmp    401e62 <_ZN9__gnu_cxxL27__exchange_and_add_dispatchEPii+0x41>
    else
      return __exchange_and_add_single(__mem, __val);
  401e51:	8b 55 f4             	mov    -0xc(%rbp),%edx
  401e54:	48 8b 45 f8          	mov    -0x8(%rbp),%rax
  401e58:	89 d6                	mov    %edx,%esi
  401e5a:	48 89 c7             	mov    %rax,%rdi
  401e5d:	e8 95 ff ff ff       	callq  401df7 <_ZN9__gnu_cxxL25__exchange_and_add_singleEPii>
#else
    return __exchange_and_add_single(__mem, __val);
#endif
  }
  401e62:	c9                   	leaveq 
  401e63:	c3                   	retq   

0000000000401e64 <_ZZ14run_experimentvENKUlRN7barrier35centralized_sense_reversing_barrierEmmRSt6atomicIbEE_clES1_mmS4_>:
	
	for (std::size_t i = 0; i < data.size(); ++i){
		data[i].resize(workload_size);
	}

	auto thread_job = [](barrier::centralized_sense_reversing_barrier& barrier, std::size_t workload, std::mt19937::result_type seed, std::atomic<bool>& start_flag){	
  401e64:	55                   	push   %rbp
  401e65:	48 89 e5             	mov    %rsp,%rbp
  401e68:	48 81 ec e0 13 00 00 	sub    $0x13e0,%rsp
  401e6f:	48 89 bd 48 ec ff ff 	mov    %rdi,-0x13b8(%rbp)
  401e76:	48 89 b5 40 ec ff ff 	mov    %rsi,-0x13c0(%rbp)
  401e7d:	48 89 95 38 ec ff ff 	mov    %rdx,-0x13c8(%rbp)
  401e84:	48 89 8d 30 ec ff ff 	mov    %rcx,-0x13d0(%rbp)
  401e8b:	4c 89 85 28 ec ff ff 	mov    %r8,-0x13d8(%rbp)
		const std::size_t num_episodes = 10000;
  401e92:	48 c7 85 58 ec ff ff 	movq   $0x2710,-0x13a8(%rbp)
  401e99:	10 27 00 00 

		random_workload work{workload, seed};
  401e9d:	48 8b 95 30 ec ff ff 	mov    -0x13d0(%rbp),%rdx
  401ea4:	48 8b 8d 38 ec ff ff 	mov    -0x13c8(%rbp),%rcx
  401eab:	48 8d 85 60 ec ff ff 	lea    -0x13a0(%rbp),%rax
  401eb2:	48 89 ce             	mov    %rcx,%rsi
  401eb5:	48 89 c7             	mov    %rax,%rdi
  401eb8:	e8 0b 2c 00 00       	callq  404ac8 <_ZN15random_workloadC1Emm>

		// wait until we are told to start
		while (!start_flag.load()){}
  401ebd:	90                   	nop
  401ebe:	48 8b 85 28 ec ff ff 	mov    -0x13d8(%rbp),%rax
  401ec5:	be 05 00 00 00       	mov    $0x5,%esi
  401eca:	48 89 c7             	mov    %rax,%rdi
  401ecd:	e8 50 1f 00 00       	callq  403e22 <_ZNKSt11atomic_bool4loadESt12memory_order>
  401ed2:	83 f0 01             	xor    $0x1,%eax
  401ed5:	84 c0                	test   %al,%al
  401ed7:	75 e5                	jne    401ebe <_ZZ14run_experimentvENKUlRN7barrier35centralized_sense_reversing_barrierEmmRSt6atomicIbEE_clES1_mmS4_+0x5a>

		for (std::size_t i = 0; i < num_episodes; ++i){
  401ed9:	48 c7 85 50 ec ff ff 	movq   $0x0,-0x13b0(%rbp)
  401ee0:	00 00 00 00 
  401ee4:	eb 26                	jmp    401f0c <_ZZ14run_experimentvENKUlRN7barrier35centralized_sense_reversing_barrierEmmRSt6atomicIbEE_clES1_mmS4_+0xa8>
			work();
  401ee6:	48 8d 85 60 ec ff ff 	lea    -0x13a0(%rbp),%rax
  401eed:	48 89 c7             	mov    %rax,%rdi
  401ef0:	e8 2b 2c 00 00       	callq  404b20 <_ZN15random_workloadclEv>
			barrier.await();
  401ef5:	48 8b 85 40 ec ff ff 	mov    -0x13c0(%rbp),%rax
  401efc:	48 89 c7             	mov    %rax,%rdi
  401eff:	e8 06 2b 00 00       	callq  404a0a <_ZN7barrier35centralized_sense_reversing_barrier5awaitEv>
		random_workload work{workload, seed};

		// wait until we are told to start
		while (!start_flag.load()){}

		for (std::size_t i = 0; i < num_episodes; ++i){
  401f04:	48 83 85 50 ec ff ff 	addq   $0x1,-0x13b0(%rbp)
  401f0b:	01 
  401f0c:	48 81 bd 50 ec ff ff 	cmpq   $0x270f,-0x13b0(%rbp)
  401f13:	0f 27 00 00 
  401f17:	76 cd                	jbe    401ee6 <_ZZ14run_experimentvENKUlRN7barrier35centralized_sense_reversing_barrierEmmRSt6atomicIbEE_clES1_mmS4_+0x82>
			work();
			barrier.await();
		}
	};
  401f19:	c9                   	leaveq 
  401f1a:	c3                   	retq   

0000000000401f1b <_Z14run_experimentv>:
	}
};

// The function returns a vector of vectors that contain the (lower,mean,upper) latencies. 
// The first vector denotes the number of threads and the inner vector the workload parameter
std::vector<std::vector<std::tuple<double,double,double> > > run_experiment(){
  401f1b:	55                   	push   %rbp
  401f1c:	48 89 e5             	mov    %rsp,%rbp
  401f1f:	41 57                	push   %r15
  401f21:	41 56                	push   %r14
  401f23:	41 55                	push   %r13
  401f25:	41 54                	push   %r12
  401f27:	53                   	push   %rbx
  401f28:	48 83 e4 c0          	and    $0xffffffffffffffc0,%rsp
  401f2c:	48 81 ec c0 15 00 00 	sub    $0x15c0,%rsp
  401f33:	48 89 7c 24 08       	mov    %rdi,0x8(%rsp)
  401f38:	64 48 8b 04 25 28 00 	mov    %fs:0x28,%rax
  401f3f:	00 00 
  401f41:	48 89 84 24 b8 15 00 	mov    %rax,0x15b8(%rsp)
  401f48:	00 
  401f49:	31 c0                	xor    %eax,%eax
	std::vector<std::vector<std::tuple<double,double,double> > > data;
  401f4b:	48 8b 44 24 08       	mov    0x8(%rsp),%rax
  401f50:	48 89 c7             	mov    %rax,%rdi
  401f53:	e8 12 36 00 00       	callq  40556a <_ZNSt6vectorIS_ISt5tupleIIdddEESaIS1_EESaIS3_EEC1Ev>

	const std::size_t workloads [] = {1,10,100};
  401f58:	48 c7 84 24 b0 00 00 	movq   $0x1,0xb0(%rsp)
  401f5f:	00 01 00 00 00 
  401f64:	48 c7 84 24 b8 00 00 	movq   $0xa,0xb8(%rsp)
  401f6b:	00 0a 00 00 00 
  401f70:	48 c7 84 24 c0 00 00 	movq   $0x64,0xc0(%rsp)
  401f77:	00 64 00 00 00 
	const std::size_t workload_size = sizeof(workloads)/sizeof(workloads[0]);
  401f7c:	48 c7 84 24 90 00 00 	movq   $0x3,0x90(%rsp)
  401f83:	00 03 00 00 00 

	data.resize(8);
  401f88:	48 8b 44 24 08       	mov    0x8(%rsp),%rax
  401f8d:	be 08 00 00 00       	mov    $0x8,%esi
  401f92:	48 89 c7             	mov    %rax,%rdi
  401f95:	e8 2e 36 00 00       	callq  4055c8 <_ZNSt6vectorIS_ISt5tupleIIdddEESaIS1_EESaIS3_EE6resizeEm>
	
	for (std::size_t i = 0; i < data.size(); ++i){
  401f9a:	48 c7 44 24 68 00 00 	movq   $0x0,0x68(%rsp)
  401fa1:	00 00 
  401fa3:	eb 28                	jmp    401fcd <_Z14run_experimentv+0xb2>
		data[i].resize(workload_size);
  401fa5:	48 8b 54 24 68       	mov    0x68(%rsp),%rdx
  401faa:	48 8b 44 24 08       	mov    0x8(%rsp),%rax
  401faf:	48 89 d6             	mov    %rdx,%rsi
  401fb2:	48 89 c7             	mov    %rax,%rdi
  401fb5:	e8 d6 36 00 00       	callq  405690 <_ZNSt6vectorIS_ISt5tupleIIdddEESaIS1_EESaIS3_EEixEm>
  401fba:	be 03 00 00 00       	mov    $0x3,%esi
  401fbf:	48 89 c7             	mov    %rax,%rdi
  401fc2:	e8 f3 36 00 00       	callq  4056ba <_ZNSt6vectorISt5tupleIIdddEESaIS1_EE6resizeEm>
	const std::size_t workloads [] = {1,10,100};
	const std::size_t workload_size = sizeof(workloads)/sizeof(workloads[0]);

	data.resize(8);
	
	for (std::size_t i = 0; i < data.size(); ++i){
  401fc7:	48 83 44 24 68 01    	addq   $0x1,0x68(%rsp)
  401fcd:	48 8b 44 24 08       	mov    0x8(%rsp),%rax
  401fd2:	48 89 c7             	mov    %rax,%rdi
  401fd5:	e8 7e 36 00 00       	callq  405658 <_ZNKSt6vectorIS_ISt5tupleIIdddEESaIS1_EESaIS3_EE4sizeEv>
  401fda:	48 3b 44 24 68       	cmp    0x68(%rsp),%rax
  401fdf:	0f 97 c0             	seta   %al
  401fe2:	84 c0                	test   %al,%al
  401fe4:	75 bf                	jne    401fa5 <_Z14run_experimentv+0x8a>
			work();
			barrier.await();
		}
	};

	std::cout << "Starting the experiment" << std::endl;
  401fe6:	be 28 bd 40 00       	mov    $0x40bd28,%esi
  401feb:	bf 60 42 61 00       	mov    $0x614260,%edi
  401ff0:	e8 2b f7 ff ff       	callq  401720 <_ZStlsISt11char_traitsIcEERSt13basic_ostreamIcT_ES5_PKc@plt>
  401ff5:	be b0 18 40 00       	mov    $0x4018b0,%esi
  401ffa:	48 89 c7             	mov    %rax,%rdi
  401ffd:	e8 6e f8 ff ff       	callq  401870 <_ZNSolsEPFRSoS_E@plt>

	barrier::internal::affinity aff_setter;

	for (std::size_t num_threads = 1; num_threads <= 8; ++num_threads){
  402002:	48 c7 44 24 70 01 00 	movq   $0x1,0x70(%rsp)
  402009:	00 00 
  40200b:	e9 56 04 00 00       	jmpq   402466 <_Z14run_experimentv+0x54b>
		for (std::size_t workload_index = 0; workload_index < workload_size; ++workload_index){
  402010:	48 c7 44 24 78 00 00 	movq   $0x0,0x78(%rsp)
  402017:	00 00 
  402019:	e9 36 04 00 00       	jmpq   402454 <_Z14run_experimentv+0x539>
			const std::size_t workload = workloads[workload_index];
  40201e:	48 8b 44 24 78       	mov    0x78(%rsp),%rax
  402023:	48 8b 84 c4 b0 00 00 	mov    0xb0(%rsp,%rax,8),%rax
  40202a:	00 
  40202b:	48 89 44 24 60       	mov    %rax,0x60(%rsp)
			std::cout << "Executing experiment with " << num_threads << " threads and " << workload << " workload parameter." << std::endl;
  402030:	48 8b 5c 24 60       	mov    0x60(%rsp),%rbx
  402035:	be 40 bd 40 00       	mov    $0x40bd40,%esi
  40203a:	bf 60 42 61 00       	mov    $0x614260,%edi
  40203f:	e8 dc f6 ff ff       	callq  401720 <_ZStlsISt11char_traitsIcEERSt13basic_ostreamIcT_ES5_PKc@plt>
  402044:	48 8b 54 24 70       	mov    0x70(%rsp),%rdx
  402049:	48 89 d6             	mov    %rdx,%rsi
  40204c:	48 89 c7             	mov    %rax,%rdi
  40204f:	e8 ec f6 ff ff       	callq  401740 <_ZNSolsEm@plt>
  402054:	be 5b bd 40 00       	mov    $0x40bd5b,%esi
  402059:	48 89 c7             	mov    %rax,%rdi
  40205c:	e8 bf f6 ff ff       	callq  401720 <_ZStlsISt11char_traitsIcEERSt13basic_ostreamIcT_ES5_PKc@plt>
  402061:	48 89 de             	mov    %rbx,%rsi
  402064:	48 89 c7             	mov    %rax,%rdi
  402067:	e8 d4 f6 ff ff       	callq  401740 <_ZNSolsEm@plt>
  40206c:	be 69 bd 40 00       	mov    $0x40bd69,%esi
  402071:	48 89 c7             	mov    %rax,%rdi
  402074:	e8 a7 f6 ff ff       	callq  401720 <_ZStlsISt11char_traitsIcEERSt13basic_ostreamIcT_ES5_PKc@plt>
  402079:	be b0 18 40 00       	mov    $0x4018b0,%esi
  40207e:	48 89 c7             	mov    %rax,%rdi
  402081:	e8 ea f7 ff ff       	callq  401870 <_ZNSolsEPFRSoS_E@plt>

			// with a confidence interval
			const std::size_t num_times{30};
  402086:	48 c7 84 24 98 00 00 	movq   $0x1e,0x98(%rsp)
  40208d:	00 1e 00 00 00 

			barrier::internal::confidence_interval mean(num_times);
  402092:	48 8d 84 24 d0 00 00 	lea    0xd0(%rsp),%rax
  402099:	00 
  40209a:	be 1e 00 00 00       	mov    $0x1e,%esi
  40209f:	48 89 c7             	mov    %rax,%rdi
  4020a2:	e8 9d 1d 00 00       	callq  403e44 <_ZN7barrier8internal19confidence_intervalC1Em>


			// create the random seeds for the threads. Each of the num_times times each thread must start with the same seed!
			// this is a requirement for reproducability
			std::vector<std::mt19937::result_type> seeds;
  4020a7:	48 8d 84 24 f0 00 00 	lea    0xf0(%rsp),%rax
  4020ae:	00 
  4020af:	48 89 c7             	mov    %rax,%rdi
  4020b2:	e8 93 36 00 00       	callq  40574a <_ZNSt6vectorImSaImEEC1Ev>
			 			
			std::mt19937 rnd(1337);
  4020b7:	48 8d 84 24 30 01 00 	lea    0x130(%rsp),%rax
  4020be:	00 
  4020bf:	be 39 05 00 00       	mov    $0x539,%esi
  4020c4:	48 89 c7             	mov    %rax,%rdi
  4020c7:	e8 4e 34 00 00       	callq  40551a <_ZNSt23mersenne_twister_engineImLm32ELm624ELm397ELm31ELm2567483615ELm11ELm4294967295ELm7ELm2636928640ELm15ELm4022730752ELm18ELm1812433253EEC1Em>

			for (std::size_t i = 0; i < num_threads; ++i){
  4020cc:	48 c7 84 24 80 00 00 	movq   $0x0,0x80(%rsp)
  4020d3:	00 00 00 00 00 
  4020d8:	eb 3c                	jmp    402116 <_Z14run_experimentv+0x1fb>
				seeds.push_back(rnd());
  4020da:	48 8d 84 24 30 01 00 	lea    0x130(%rsp),%rax
  4020e1:	00 
  4020e2:	48 89 c7             	mov    %rax,%rdi
  4020e5:	e8 be 36 00 00       	callq  4057a8 <_ZNSt23mersenne_twister_engineImLm32ELm624ELm397ELm31ELm2567483615ELm11ELm4294967295ELm7ELm2636928640ELm15ELm4022730752ELm18ELm1812433253EEclEv>
  4020ea:	48 89 84 24 10 01 00 	mov    %rax,0x110(%rsp)
  4020f1:	00 
  4020f2:	48 8d 94 24 10 01 00 	lea    0x110(%rsp),%rdx
  4020f9:	00 
  4020fa:	48 8d 84 24 f0 00 00 	lea    0xf0(%rsp),%rax
  402101:	00 
  402102:	48 89 d6             	mov    %rdx,%rsi
  402105:	48 89 c7             	mov    %rax,%rdi
  402108:	e8 3d 37 00 00       	callq  40584a <_ZNSt6vectorImSaImEE9push_backEOm>
			// this is a requirement for reproducability
			std::vector<std::mt19937::result_type> seeds;
			 			
			std::mt19937 rnd(1337);

			for (std::size_t i = 0; i < num_threads; ++i){
  40210d:	48 83 84 24 80 00 00 	addq   $0x1,0x80(%rsp)
  402114:	00 01 
  402116:	48 8b 84 24 80 00 00 	mov    0x80(%rsp),%rax
  40211d:	00 
  40211e:	48 3b 44 24 70       	cmp    0x70(%rsp),%rax
  402123:	72 b5                	jb     4020da <_Z14run_experimentv+0x1bf>
				seeds.push_back(rnd());
			}

			for (std::size_t i = 0; i < num_times; ++i){
  402125:	48 c7 84 24 88 00 00 	movq   $0x0,0x88(%rsp)
  40212c:	00 00 00 00 00 
  402131:	e9 92 02 00 00       	jmpq   4023c8 <_Z14run_experimentv+0x4ad>
				std::cout << "\t..." << i;
  402136:	be 7e bd 40 00       	mov    $0x40bd7e,%esi
  40213b:	bf 60 42 61 00       	mov    $0x614260,%edi
  402140:	e8 db f5 ff ff       	callq  401720 <_ZStlsISt11char_traitsIcEERSt13basic_ostreamIcT_ES5_PKc@plt>
  402145:	48 8b 94 24 88 00 00 	mov    0x88(%rsp),%rdx
  40214c:	00 
  40214d:	48 89 d6             	mov    %rdx,%rsi
  402150:	48 89 c7             	mov    %rax,%rdi
  402153:	e8 e8 f5 ff ff       	callq  401740 <_ZNSolsEm@plt>


				// create the barrier instance
				std::aligned_storage<sizeof(barrier::centralized_sense_reversing_barrier),CACHE_LINE_SIZE>::type barrier;
				
				new(&barrier) barrier::centralized_sense_reversing_barrier(num_threads); 
  402158:	48 8d 84 24 c0 14 00 	lea    0x14c0(%rsp),%rax
  40215f:	00 
  402160:	48 89 c6             	mov    %rax,%rsi
  402163:	bf 84 00 00 00       	mov    $0x84,%edi
  402168:	e8 f0 19 00 00       	callq  403b5d <_ZnwmPv>
  40216d:	48 85 c0             	test   %rax,%rax
  402170:	74 0f                	je     402181 <_Z14run_experimentv+0x266>
  402172:	48 8b 54 24 70       	mov    0x70(%rsp),%rdx
  402177:	89 d6                	mov    %edx,%esi
  402179:	48 89 c7             	mov    %rax,%rdi
  40217c:	e8 5f 28 00 00       	callq  4049e0 <_ZN7barrier35centralized_sense_reversing_barrierC1Ej>

				// clear the caches
				{
					std::cout << "\tClearing caches" << std::endl;
  402181:	be 83 bd 40 00       	mov    $0x40bd83,%esi
  402186:	bf 60 42 61 00       	mov    $0x614260,%edi
  40218b:	e8 90 f5 ff ff       	callq  401720 <_ZStlsISt11char_traitsIcEERSt13basic_ostreamIcT_ES5_PKc@plt>
  402190:	be b0 18 40 00       	mov    $0x4018b0,%esi
  402195:	48 89 c7             	mov    %rax,%rdi
  402198:	e8 d3 f6 ff ff       	callq  401870 <_ZNSolsEPFRSoS_E@plt>
					barrier::internal::cache_wiper cw;

					cw.clear_caches();
  40219d:	48 8d 84 24 10 01 00 	lea    0x110(%rsp),%rax
  4021a4:	00 
  4021a5:	48 89 c7             	mov    %rax,%rdi
  4021a8:	e8 3f 25 00 00       	callq  4046ec <_ZN7barrier8internal11cache_wiper12clear_cachesEv>
				}


				// create the threads
				std::vector<std::thread> threads;
  4021ad:	48 8d 84 24 10 01 00 	lea    0x110(%rsp),%rax
  4021b4:	00 
  4021b5:	48 89 c7             	mov    %rax,%rdi
  4021b8:	e8 1f 30 00 00       	callq  4051dc <_ZNSt6vectorISt6threadSaIS0_EEC1Ev>
				std::atomic<bool> start_flag{false};
  4021bd:	c6 44 24 1b 00       	movb   $0x0,0x1b(%rsp)

				for (int j = 0; j < num_threads; ++j){
  4021c2:	c7 44 24 1c 00 00 00 	movl   $0x0,0x1c(%rsp)
  4021c9:	00 
  4021ca:	e9 db 00 00 00       	jmpq   4022aa <_Z14run_experimentv+0x38f>
					std::thread t = std::thread{thread_job,std::ref(*static_cast<barrier::centralized_sense_reversing_barrier*>(
								static_cast<void*>(&barrier))), 
								workload, seeds[j], std::ref(start_flag)};
  4021cf:	48 8d 44 24 50       	lea    0x50(%rsp),%rax
  4021d4:	48 8d 54 24 1b       	lea    0x1b(%rsp),%rdx
  4021d9:	48 89 d6             	mov    %rdx,%rsi
  4021dc:	48 89 c7             	mov    %rax,%rdi
  4021df:	e8 e0 36 00 00       	callq  4058c4 <_ZSt3refISt6atomicIbEESt17reference_wrapperIT_ERS3_>
  4021e4:	8b 44 24 1c          	mov    0x1c(%rsp),%eax
  4021e8:	48 63 d0             	movslq %eax,%rdx
  4021eb:	48 8d 84 24 f0 00 00 	lea    0xf0(%rsp),%rax
  4021f2:	00 
  4021f3:	48 89 d6             	mov    %rdx,%rsi
  4021f6:	48 89 c7             	mov    %rax,%rdi
  4021f9:	e8 a6 36 00 00       	callq  4058a4 <_ZNSt6vectorImSaImEEixEm>
  4021fe:	48 89 c3             	mov    %rax,%rbx
  402201:	48 8d 44 24 40       	lea    0x40(%rsp),%rax
  402206:	48 8d 94 24 c0 14 00 	lea    0x14c0(%rsp),%rdx
  40220d:	00 
  40220e:	48 89 d6             	mov    %rdx,%rsi
  402211:	48 89 c7             	mov    %rax,%rdi
  402214:	e8 61 36 00 00       	callq  40587a <_ZSt3refIN7barrier35centralized_sense_reversing_barrierEESt17reference_wrapperIT_ERS3_>
  402219:	48 8d 7c 24 50       	lea    0x50(%rsp),%rdi
  40221e:	48 8d 4c 24 60       	lea    0x60(%rsp),%rcx
  402223:	48 8d 54 24 40       	lea    0x40(%rsp),%rdx
  402228:	48 8d 74 24 19       	lea    0x19(%rsp),%rsi
  40222d:	48 8d 44 24 30       	lea    0x30(%rsp),%rax
  402232:	49 89 f9             	mov    %rdi,%r9
  402235:	49 89 d8             	mov    %rbx,%r8
  402238:	48 89 c7             	mov    %rax,%rdi
  40223b:	e8 88 07 00 00       	callq  4029c8 <_ZNSt6threadC1IRZ14run_experimentvEUlRN7barrier35centralized_sense_reversing_barrierEmmRSt6atomicIbEE_ISt17reference_wrapperIS2_ERKmRmS9_IS5_EEEEOT_DpOT0_>
					std::thread::native_handle_type t_handle = t.native_handle();
  402240:	48 8d 44 24 30       	lea    0x30(%rsp),%rax
  402245:	48 89 c7             	mov    %rax,%rdi
  402248:	e8 c1 1a 00 00       	callq  403d0e <_ZNSt6thread13native_handleEv>
  40224d:	48 89 84 24 a0 00 00 	mov    %rax,0xa0(%rsp)
  402254:	00 
					threads.push_back(std::move(t));
  402255:	48 8d 44 24 30       	lea    0x30(%rsp),%rax
  40225a:	48 89 c7             	mov    %rax,%rdi
  40225d:	e8 2a 29 00 00       	callq  404b8c <_ZSt4moveIRSt6threadEONSt16remove_referenceIT_E4typeEOS3_>
  402262:	48 89 c2             	mov    %rax,%rdx
  402265:	48 8d 84 24 10 01 00 	lea    0x110(%rsp),%rax
  40226c:	00 
  40226d:	48 89 d6             	mov    %rdx,%rsi
  402270:	48 89 c7             	mov    %rax,%rdi
  402273:	e8 ec 30 00 00       	callq  405364 <_ZNSt6vectorISt6threadSaIS0_EE9push_backEOS0_>

					aff_setter(num_threads, j, t_handle);
  402278:	48 8b 44 24 70       	mov    0x70(%rsp),%rax
  40227d:	89 c6                	mov    %eax,%esi
  40227f:	48 8b 8c 24 a0 00 00 	mov    0xa0(%rsp),%rcx
  402286:	00 
  402287:	8b 54 24 1c          	mov    0x1c(%rsp),%edx
  40228b:	48 8d 44 24 1a       	lea    0x1a(%rsp),%rax
  402290:	48 89 c7             	mov    %rax,%rdi
  402293:	e8 1a 27 00 00       	callq  4049b2 <_ZN7barrier8internal8affinityclEiim>
				}
  402298:	48 8d 44 24 30       	lea    0x30(%rsp),%rax
  40229d:	48 89 c7             	mov    %rax,%rdi
  4022a0:	e8 ef 19 00 00       	callq  403c94 <_ZNSt6threadD1Ev>

				// create the threads
				std::vector<std::thread> threads;
				std::atomic<bool> start_flag{false};

				for (int j = 0; j < num_threads; ++j){
  4022a5:	83 44 24 1c 01       	addl   $0x1,0x1c(%rsp)
  4022aa:	8b 44 24 1c          	mov    0x1c(%rsp),%eax
  4022ae:	48 98                	cltq   
  4022b0:	48 3b 44 24 70       	cmp    0x70(%rsp),%rax
  4022b5:	0f 82 14 ff ff ff    	jb     4021cf <_Z14run_experimentv+0x2b4>
					threads.push_back(std::move(t));

					aff_setter(num_threads, j, t_handle);
				}
					
				auto start_time = std::chrono::steady_clock::now();
  4022bb:	e8 20 f6 ff ff       	callq  4018e0 <_ZNSt6chrono3_V212steady_clock3nowEv@plt>
  4022c0:	48 89 44 24 20       	mov    %rax,0x20(%rsp)
				start_flag = true;
  4022c5:	48 8d 44 24 1b       	lea    0x1b(%rsp),%rax
  4022ca:	be 01 00 00 00       	mov    $0x1,%esi
  4022cf:	48 89 c7             	mov    %rax,%rdi
  4022d2:	e8 f9 1a 00 00       	callq  403dd0 <_ZNSt11atomic_boolaSEb>
				// wait for the threads to finish
				std::for_each(threads.begin(), threads.end(), std::mem_fn(&std::thread::join));
  4022d7:	41 bc 70 17 40 00    	mov    $0x401770,%r12d
  4022dd:	41 bd 00 00 00 00    	mov    $0x0,%r13d
  4022e3:	4c 89 e1             	mov    %r12,%rcx
  4022e6:	4c 89 eb             	mov    %r13,%rbx
  4022e9:	4c 89 e0             	mov    %r12,%rax
  4022ec:	4c 89 ea             	mov    %r13,%rdx
  4022ef:	48 89 d0             	mov    %rdx,%rax
  4022f2:	48 89 cf             	mov    %rcx,%rdi
  4022f5:	48 89 c6             	mov    %rax,%rsi
  4022f8:	e8 e6 30 00 00       	callq  4053e3 <_ZSt6mem_fnIFvvESt6threadESt7_Mem_fnIMT0_T_ES5_>
  4022fd:	49 89 c6             	mov    %rax,%r14
  402300:	49 89 d7             	mov    %rdx,%r15
  402303:	48 8d 84 24 10 01 00 	lea    0x110(%rsp),%rax
  40230a:	00 
  40230b:	48 89 c7             	mov    %rax,%rdi
  40230e:	e8 a7 30 00 00       	callq  4053ba <_ZNSt6vectorISt6threadSaIS0_EE3endEv>
  402313:	48 89 c3             	mov    %rax,%rbx
  402316:	48 8d 84 24 10 01 00 	lea    0x110(%rsp),%rax
  40231d:	00 
  40231e:	48 89 c7             	mov    %rax,%rdi
  402321:	e8 6e 30 00 00       	callq  405394 <_ZNSt6vectorISt6threadSaIS0_EE5beginEv>
  402326:	4c 89 f2             	mov    %r14,%rdx
  402329:	4c 89 f9             	mov    %r15,%rcx
  40232c:	48 89 de             	mov    %rbx,%rsi
  40232f:	48 89 c7             	mov    %rax,%rdi
  402332:	e8 f4 30 00 00       	callq  40542b <_ZSt8for_eachIN9__gnu_cxx17__normal_iteratorIPSt6threadSt6vectorIS2_SaIS2_EEEESt7_Mem_fnIMS2_FvvEEET0_T_SD_SC_>
				auto end_time = std::chrono::steady_clock::now();
  402337:	e8 a4 f5 ff ff       	callq  4018e0 <_ZNSt6chrono3_V212steady_clock3nowEv@plt>
  40233c:	48 89 44 24 30       	mov    %rax,0x30(%rsp)
				double elapsed_time = std::chrono::duration<double,std::nano>(end_time-start_time).count();
  402341:	48 8d 54 24 20       	lea    0x20(%rsp),%rdx
  402346:	48 8d 44 24 30       	lea    0x30(%rsp),%rax
  40234b:	48 89 d6             	mov    %rdx,%rsi
  40234e:	48 89 c7             	mov    %rax,%rdi
  402351:	e8 bf 28 00 00       	callq  404c15 <_ZNSt6chronomiINS_3_V212steady_clockENS_8durationIlSt5ratioILl1ELl1000000000EEEES6_EENSt11common_typeIIT0_T1_EE4typeERKNS_10time_pointIT_S8_EERKNSC_ISD_S9_EE>
  402356:	48 89 44 24 40       	mov    %rax,0x40(%rsp)
  40235b:	48 8d 54 24 40       	lea    0x40(%rsp),%rdx
  402360:	48 8d 44 24 50       	lea    0x50(%rsp),%rax
  402365:	48 89 d6             	mov    %rdx,%rsi
  402368:	48 89 c7             	mov    %rax,%rdi
  40236b:	e8 90 29 00 00       	callq  404d00 <_ZNSt6chrono8durationIdSt5ratioILl1ELl1000000000EEEC1IlS2_vEERKNS0_IT_T0_EE>
  402370:	48 8d 44 24 50       	lea    0x50(%rsp),%rax
  402375:	48 89 c7             	mov    %rax,%rdi
  402378:	e8 69 29 00 00       	callq  404ce6 <_ZNKSt6chrono8durationIdSt5ratioILl1ELl1000000000EEE5countEv>
  40237d:	f2 0f 11 04 24       	movsd  %xmm0,(%rsp)
  402382:	48 8b 04 24          	mov    (%rsp),%rax
  402386:	48 89 84 24 a8 00 00 	mov    %rax,0xa8(%rsp)
  40238d:	00 

				mean.add(elapsed_time);				
  40238e:	48 8b 84 24 a8 00 00 	mov    0xa8(%rsp),%rax
  402395:	00 
  402396:	48 8d 94 24 d0 00 00 	lea    0xd0(%rsp),%rdx
  40239d:	00 
  40239e:	48 89 04 24          	mov    %rax,(%rsp)
  4023a2:	f2 0f 10 04 24       	movsd  (%rsp),%xmm0
  4023a7:	48 89 d7             	mov    %rdx,%rdi
  4023aa:	e8 e9 1a 00 00       	callq  403e98 <_ZN7barrier8internal19confidence_interval3addEd>
			}
  4023af:	48 8d 84 24 10 01 00 	lea    0x110(%rsp),%rax
  4023b6:	00 
  4023b7:	48 89 c7             	mov    %rax,%rdi
  4023ba:	e8 37 2e 00 00       	callq  4051f6 <_ZNSt6vectorISt6threadSaIS0_EED1Ev>

			for (std::size_t i = 0; i < num_threads; ++i){
				seeds.push_back(rnd());
			}

			for (std::size_t i = 0; i < num_times; ++i){
  4023bf:	48 83 84 24 88 00 00 	addq   $0x1,0x88(%rsp)
  4023c6:	00 01 
  4023c8:	48 83 bc 24 88 00 00 	cmpq   $0x1d,0x88(%rsp)
  4023cf:	00 1d 
  4023d1:	0f 86 5f fd ff ff    	jbe    402136 <_Z14run_experimentv+0x21b>
				mean.add(elapsed_time);				
			}


			// now record the result
			data[num_threads-1][workload_index] = mean.mean();
  4023d7:	48 8d 84 24 10 01 00 	lea    0x110(%rsp),%rax
  4023de:	00 
  4023df:	48 8d 94 24 d0 00 00 	lea    0xd0(%rsp),%rdx
  4023e6:	00 
  4023e7:	48 89 d6             	mov    %rdx,%rsi
  4023ea:	48 89 c7             	mov    %rax,%rdi
  4023ed:	e8 62 1f 00 00       	callq  404354 <_ZN7barrier8internal19confidence_interval4meanEv>
  4023f2:	48 8b 44 24 70       	mov    0x70(%rsp),%rax
  4023f7:	48 8d 50 ff          	lea    -0x1(%rax),%rdx
  4023fb:	48 8b 44 24 08       	mov    0x8(%rsp),%rax
  402400:	48 89 d6             	mov    %rdx,%rsi
  402403:	48 89 c7             	mov    %rax,%rdi
  402406:	e8 85 32 00 00       	callq  405690 <_ZNSt6vectorIS_ISt5tupleIIdddEESaIS1_EESaIS3_EEixEm>
  40240b:	48 8b 54 24 78       	mov    0x78(%rsp),%rdx
  402410:	48 89 d6             	mov    %rdx,%rsi
  402413:	48 89 c7             	mov    %rax,%rdi
  402416:	e8 0b 35 00 00       	callq  405926 <_ZNSt6vectorISt5tupleIIdddEESaIS1_EEixEm>
  40241b:	48 8d 94 24 10 01 00 	lea    0x110(%rsp),%rdx
  402422:	00 
  402423:	48 89 d6             	mov    %rdx,%rsi
  402426:	48 89 c7             	mov    %rax,%rdi
  402429:	e8 30 35 00 00       	callq  40595e <_ZNSt5tupleIIdddEEaSEOS0_>
			barrier::internal::confidence_interval mean(num_times);


			// create the random seeds for the threads. Each of the num_times times each thread must start with the same seed!
			// this is a requirement for reproducability
			std::vector<std::mt19937::result_type> seeds;
  40242e:	48 8d 84 24 f0 00 00 	lea    0xf0(%rsp),%rax
  402435:	00 
  402436:	48 89 c7             	mov    %rax,%rdi
  402439:	e8 26 33 00 00       	callq  405764 <_ZNSt6vectorImSaImEED1Ev>
			}


			// now record the result
			data[num_threads-1][workload_index] = mean.mean();
		}
  40243e:	48 8d 84 24 d0 00 00 	lea    0xd0(%rsp),%rax
  402445:	00 
  402446:	48 89 c7             	mov    %rax,%rdi
  402449:	e8 24 27 00 00       	callq  404b72 <_ZN7barrier8internal19confidence_intervalD1Ev>
	std::cout << "Starting the experiment" << std::endl;

	barrier::internal::affinity aff_setter;

	for (std::size_t num_threads = 1; num_threads <= 8; ++num_threads){
		for (std::size_t workload_index = 0; workload_index < workload_size; ++workload_index){
  40244e:	48 83 44 24 78 01    	addq   $0x1,0x78(%rsp)
  402454:	48 83 7c 24 78 02    	cmpq   $0x2,0x78(%rsp)
  40245a:	0f 86 be fb ff ff    	jbe    40201e <_Z14run_experimentv+0x103>

	std::cout << "Starting the experiment" << std::endl;

	barrier::internal::affinity aff_setter;

	for (std::size_t num_threads = 1; num_threads <= 8; ++num_threads){
  402460:	48 83 44 24 70 01    	addq   $0x1,0x70(%rsp)
  402466:	48 83 7c 24 70 08    	cmpq   $0x8,0x70(%rsp)
  40246c:	0f 86 9e fb ff ff    	jbe    402010 <_Z14run_experimentv+0xf5>
			// now record the result
			data[num_threads-1][workload_index] = mean.mean();
		}
	}

	return data;
  402472:	90                   	nop
}
  402473:	48 8b 44 24 08       	mov    0x8(%rsp),%rax
  402478:	48 8b 8c 24 b8 15 00 	mov    0x15b8(%rsp),%rcx
  40247f:	00 
  402480:	64 48 33 0c 25 28 00 	xor    %fs:0x28,%rcx
  402487:	00 00 
  402489:	74 73                	je     4024fe <_Z14run_experimentv+0x5e3>
  40248b:	eb 6c                	jmp    4024f9 <_Z14run_experimentv+0x5de>
  40248d:	48 89 c3             	mov    %rax,%rbx
								workload, seeds[j], std::ref(start_flag)};
					std::thread::native_handle_type t_handle = t.native_handle();
					threads.push_back(std::move(t));

					aff_setter(num_threads, j, t_handle);
				}
  402490:	48 8d 44 24 30       	lea    0x30(%rsp),%rax
  402495:	48 89 c7             	mov    %rax,%rdi
  402498:	e8 f7 17 00 00       	callq  403c94 <_ZNSt6threadD1Ev>
  40249d:	eb 03                	jmp    4024a2 <_Z14run_experimentv+0x587>
  40249f:	48 89 c3             	mov    %rax,%rbx
				std::for_each(threads.begin(), threads.end(), std::mem_fn(&std::thread::join));
				auto end_time = std::chrono::steady_clock::now();
				double elapsed_time = std::chrono::duration<double,std::nano>(end_time-start_time).count();

				mean.add(elapsed_time);				
			}
  4024a2:	48 8d 84 24 10 01 00 	lea    0x110(%rsp),%rax
  4024a9:	00 
  4024aa:	48 89 c7             	mov    %rax,%rdi
  4024ad:	e8 44 2d 00 00       	callq  4051f6 <_ZNSt6vectorISt6threadSaIS0_EED1Ev>
  4024b2:	eb 03                	jmp    4024b7 <_Z14run_experimentv+0x59c>
  4024b4:	48 89 c3             	mov    %rax,%rbx
			barrier::internal::confidence_interval mean(num_times);


			// create the random seeds for the threads. Each of the num_times times each thread must start with the same seed!
			// this is a requirement for reproducability
			std::vector<std::mt19937::result_type> seeds;
  4024b7:	48 8d 84 24 f0 00 00 	lea    0xf0(%rsp),%rax
  4024be:	00 
  4024bf:	48 89 c7             	mov    %rax,%rdi
  4024c2:	e8 9d 32 00 00       	callq  405764 <_ZNSt6vectorImSaImEED1Ev>
  4024c7:	eb 03                	jmp    4024cc <_Z14run_experimentv+0x5b1>
  4024c9:	48 89 c3             	mov    %rax,%rbx
			}


			// now record the result
			data[num_threads-1][workload_index] = mean.mean();
		}
  4024cc:	48 8d 84 24 d0 00 00 	lea    0xd0(%rsp),%rax
  4024d3:	00 
  4024d4:	48 89 c7             	mov    %rax,%rdi
  4024d7:	e8 96 26 00 00       	callq  404b72 <_ZN7barrier8internal19confidence_intervalD1Ev>
  4024dc:	eb 03                	jmp    4024e1 <_Z14run_experimentv+0x5c6>
  4024de:	48 89 c3             	mov    %rax,%rbx
  4024e1:	48 8b 44 24 08       	mov    0x8(%rsp),%rax
  4024e6:	48 89 c7             	mov    %rax,%rdi
  4024e9:	e8 96 30 00 00       	callq  405584 <_ZNSt6vectorIS_ISt5tupleIIdddEESaIS1_EESaIS3_EED1Ev>
  4024ee:	48 89 d8             	mov    %rbx,%rax
  4024f1:	48 89 c7             	mov    %rax,%rdi
  4024f4:	e8 27 f4 ff ff       	callq  401920 <_Unwind_Resume@plt>
	}

	return data;
}
  4024f9:	e8 f2 f2 ff ff       	callq  4017f0 <__stack_chk_fail@plt>
  4024fe:	48 8d 65 d8          	lea    -0x28(%rbp),%rsp
  402502:	5b                   	pop    %rbx
  402503:	41 5c                	pop    %r12
  402505:	41 5d                	pop    %r13
  402507:	41 5e                	pop    %r14
  402509:	41 5f                	pop    %r15
  40250b:	5d                   	pop    %rbp
  40250c:	c3                   	retq   

000000000040250d <_Z18write_data_to_fileSt6vectorIS_ISt5tupleIIdddEESaIS1_EESaIS3_EESs>:


void write_data_to_file(std::vector<std::vector<std::tuple<double,double,double>>> data, std::string out_file){
  40250d:	55                   	push   %rbp
  40250e:	48 89 e5             	mov    %rsp,%rbp
  402511:	41 55                	push   %r13
  402513:	41 54                	push   %r12
  402515:	53                   	push   %rbx
  402516:	48 81 ec 78 02 00 00 	sub    $0x278,%rsp
  40251d:	48 89 bd 88 fd ff ff 	mov    %rdi,-0x278(%rbp)
  402524:	48 89 b5 80 fd ff ff 	mov    %rsi,-0x280(%rbp)
  40252b:	64 48 8b 04 25 28 00 	mov    %fs:0x28,%rax
  402532:	00 00 
  402534:	48 89 45 d8          	mov    %rax,-0x28(%rbp)
  402538:	31 c0                	xor    %eax,%eax
	std::cout << "Writing data to file " << out_file << std::endl;
  40253a:	be 94 bd 40 00       	mov    $0x40bd94,%esi
  40253f:	bf 60 42 61 00       	mov    $0x614260,%edi
  402544:	e8 d7 f1 ff ff       	callq  401720 <_ZStlsISt11char_traitsIcEERSt13basic_ostreamIcT_ES5_PKc@plt>
  402549:	48 8b 95 80 fd ff ff 	mov    -0x280(%rbp),%rdx
  402550:	48 89 d6             	mov    %rdx,%rsi
  402553:	48 89 c7             	mov    %rax,%rdi
  402556:	e8 85 f2 ff ff       	callq  4017e0 <_ZStlsIcSt11char_traitsIcESaIcEERSt13basic_ostreamIT_T0_ES7_RKSbIS4_S5_T1_E@plt>
  40255b:	be b0 18 40 00       	mov    $0x4018b0,%esi
  402560:	48 89 c7             	mov    %rax,%rdi
  402563:	e8 08 f3 ff ff       	callq  401870 <_ZNSolsEPFRSoS_E@plt>

	std::ofstream out;
  402568:	48 8d 85 d0 fd ff ff 	lea    -0x230(%rbp),%rax
  40256f:	48 89 c7             	mov    %rax,%rdi
  402572:	e8 09 f3 ff ff       	callq  401880 <_ZNSt14basic_ofstreamIcSt11char_traitsIcEEC1Ev@plt>

	out.open(out_file);
  402577:	be 20 00 00 00       	mov    $0x20,%esi
  40257c:	bf 10 00 00 00       	mov    $0x10,%edi
  402581:	e8 f7 15 00 00       	callq  403b7d <_ZStorSt13_Ios_OpenmodeS_>
  402586:	89 c2                	mov    %eax,%edx
  402588:	48 8b 8d 80 fd ff ff 	mov    -0x280(%rbp),%rcx
  40258f:	48 8d 85 d0 fd ff ff 	lea    -0x230(%rbp),%rax
  402596:	48 89 ce             	mov    %rcx,%rsi
  402599:	48 89 c7             	mov    %rax,%rdi
  40259c:	e8 0f f1 ff ff       	callq  4016b0 <_ZNSt14basic_ofstreamIcSt11char_traitsIcEE4openERKSsSt13_Ios_Openmode@plt>

	try{
		out << "NumberOfThreads\\Workload 1\t\t10\t\t100\t\t1000\t\t10000\t\t100000\t\t1000000\n";
  4025a1:	48 8d 85 d0 fd ff ff 	lea    -0x230(%rbp),%rax
  4025a8:	be b0 bd 40 00       	mov    $0x40bdb0,%esi
  4025ad:	48 89 c7             	mov    %rax,%rdi
  4025b0:	e8 6b f1 ff ff       	callq  401720 <_ZStlsISt11char_traitsIcEERSt13basic_ostreamIcT_ES5_PKc@plt>

		for (auto i = 0; i < data.size(); ++i){
  4025b5:	c7 85 9c fd ff ff 00 	movl   $0x0,-0x264(%rbp)
  4025bc:	00 00 00 
  4025bf:	e9 77 01 00 00       	jmpq   40273b <_Z18write_data_to_fileSt6vectorIS_ISt5tupleIIdddEESaIS1_EESaIS3_EESs+0x22e>
			out << i+1;
  4025c4:	8b 85 9c fd ff ff    	mov    -0x264(%rbp),%eax
  4025ca:	8d 50 01             	lea    0x1(%rax),%edx
  4025cd:	48 8d 85 d0 fd ff ff 	lea    -0x230(%rbp),%rax
  4025d4:	89 d6                	mov    %edx,%esi
  4025d6:	48 89 c7             	mov    %rax,%rdi
  4025d9:	e8 52 f0 ff ff       	callq  401630 <_ZNSolsEi@plt>

			for (const auto& m : data[i]){
  4025de:	8b 85 9c fd ff ff    	mov    -0x264(%rbp),%eax
  4025e4:	48 63 d0             	movslq %eax,%rdx
  4025e7:	48 8b 85 88 fd ff ff 	mov    -0x278(%rbp),%rax
  4025ee:	48 89 d6             	mov    %rdx,%rsi
  4025f1:	48 89 c7             	mov    %rax,%rdi
  4025f4:	e8 97 30 00 00       	callq  405690 <_ZNSt6vectorIS_ISt5tupleIIdddEESaIS1_EESaIS3_EEixEm>
  4025f9:	48 89 85 c0 fd ff ff 	mov    %rax,-0x240(%rbp)
  402600:	48 8b 85 c0 fd ff ff 	mov    -0x240(%rbp),%rax
  402607:	48 89 c7             	mov    %rax,%rdi
  40260a:	e8 83 33 00 00       	callq  405992 <_ZNSt6vectorISt5tupleIIdddEESaIS1_EE5beginEv>
  40260f:	48 89 85 a0 fd ff ff 	mov    %rax,-0x260(%rbp)
  402616:	48 8b 85 c0 fd ff ff 	mov    -0x240(%rbp),%rax
  40261d:	48 89 c7             	mov    %rax,%rdi
  402620:	e8 93 33 00 00       	callq  4059b8 <_ZNSt6vectorISt5tupleIIdddEESaIS1_EE3endEv>
  402625:	48 89 85 b0 fd ff ff 	mov    %rax,-0x250(%rbp)
  40262c:	e9 ce 00 00 00       	jmpq   4026ff <_Z18write_data_to_fileSt6vectorIS_ISt5tupleIIdddEESaIS1_EESaIS3_EESs+0x1f2>
  402631:	48 8d 85 a0 fd ff ff 	lea    -0x260(%rbp),%rax
  402638:	48 89 c7             	mov    %rax,%rdi
  40263b:	e8 fe 33 00 00       	callq  405a3e <_ZNK9__gnu_cxx17__normal_iteratorIPSt5tupleIIdddEESt6vectorIS2_SaIS2_EEEdeEv>
  402640:	48 89 85 c8 fd ff ff 	mov    %rax,-0x238(%rbp)
				out << "\t" << std::get<0>(m) << " " << std::get<1>(m) << " " << std::get<2>(m);
  402647:	48 8b 85 c8 fd ff ff 	mov    -0x238(%rbp),%rax
  40264e:	48 89 c7             	mov    %rax,%rdi
  402651:	e8 f3 27 00 00       	callq  404e49 <_ZSt3getILm2EIdddEENSt11__add_c_refINSt13tuple_elementIXT_ESt5tupleIIDpT0_EEE4typeEE4typeERKS5_>
  402656:	48 8b 18             	mov    (%rax),%rbx
  402659:	48 8b 85 c8 fd ff ff 	mov    -0x238(%rbp),%rax
  402660:	48 89 c7             	mov    %rax,%rdi
  402663:	e8 85 27 00 00       	callq  404ded <_ZSt3getILm1EIdddEENSt11__add_c_refINSt13tuple_elementIXT_ESt5tupleIIDpT0_EEE4typeEE4typeERKS5_>
  402668:	4c 8b 20             	mov    (%rax),%r12
  40266b:	48 8b 85 c8 fd ff ff 	mov    -0x238(%rbp),%rax
  402672:	48 89 c7             	mov    %rax,%rdi
  402675:	e8 13 27 00 00       	callq  404d8d <_ZSt3getILm0EIdddEENSt11__add_c_refINSt13tuple_elementIXT_ESt5tupleIIDpT0_EEE4typeEE4typeERKS5_>
  40267a:	4c 8b 28             	mov    (%rax),%r13
  40267d:	48 8d 85 d0 fd ff ff 	lea    -0x230(%rbp),%rax
  402684:	be f3 bd 40 00       	mov    $0x40bdf3,%esi
  402689:	48 89 c7             	mov    %rax,%rdi
  40268c:	e8 8f f0 ff ff       	callq  401720 <_ZStlsISt11char_traitsIcEERSt13basic_ostreamIcT_ES5_PKc@plt>
  402691:	4c 89 ad 78 fd ff ff 	mov    %r13,-0x288(%rbp)
  402698:	f2 0f 10 85 78 fd ff 	movsd  -0x288(%rbp),%xmm0
  40269f:	ff 
  4026a0:	48 89 c7             	mov    %rax,%rdi
  4026a3:	e8 78 ef ff ff       	callq  401620 <_ZNSolsEd@plt>
  4026a8:	be f5 bd 40 00       	mov    $0x40bdf5,%esi
  4026ad:	48 89 c7             	mov    %rax,%rdi
  4026b0:	e8 6b f0 ff ff       	callq  401720 <_ZStlsISt11char_traitsIcEERSt13basic_ostreamIcT_ES5_PKc@plt>
  4026b5:	4c 89 a5 78 fd ff ff 	mov    %r12,-0x288(%rbp)
  4026bc:	f2 0f 10 85 78 fd ff 	movsd  -0x288(%rbp),%xmm0
  4026c3:	ff 
  4026c4:	48 89 c7             	mov    %rax,%rdi
  4026c7:	e8 54 ef ff ff       	callq  401620 <_ZNSolsEd@plt>
  4026cc:	be f5 bd 40 00       	mov    $0x40bdf5,%esi
  4026d1:	48 89 c7             	mov    %rax,%rdi
  4026d4:	e8 47 f0 ff ff       	callq  401720 <_ZStlsISt11char_traitsIcEERSt13basic_ostreamIcT_ES5_PKc@plt>
  4026d9:	48 89 9d 78 fd ff ff 	mov    %rbx,-0x288(%rbp)
  4026e0:	f2 0f 10 85 78 fd ff 	movsd  -0x288(%rbp),%xmm0
  4026e7:	ff 
  4026e8:	48 89 c7             	mov    %rax,%rdi
  4026eb:	e8 30 ef ff ff       	callq  401620 <_ZNSolsEd@plt>
		out << "NumberOfThreads\\Workload 1\t\t10\t\t100\t\t1000\t\t10000\t\t100000\t\t1000000\n";

		for (auto i = 0; i < data.size(); ++i){
			out << i+1;

			for (const auto& m : data[i]){
  4026f0:	48 8d 85 a0 fd ff ff 	lea    -0x260(%rbp),%rax
  4026f7:	48 89 c7             	mov    %rax,%rdi
  4026fa:	e8 1f 33 00 00       	callq  405a1e <_ZN9__gnu_cxx17__normal_iteratorIPSt5tupleIIdddEESt6vectorIS2_SaIS2_EEEppEv>
  4026ff:	48 8d 95 b0 fd ff ff 	lea    -0x250(%rbp),%rdx
  402706:	48 8d 85 a0 fd ff ff 	lea    -0x260(%rbp),%rax
  40270d:	48 89 d6             	mov    %rdx,%rsi
  402710:	48 89 c7             	mov    %rax,%rdi
  402713:	e8 c9 32 00 00       	callq  4059e1 <_ZN9__gnu_cxxneIPSt5tupleIIdddEESt6vectorIS2_SaIS2_EEEEbRKNS_17__normal_iteratorIT_T0_EESC_>
  402718:	84 c0                	test   %al,%al
  40271a:	0f 85 11 ff ff ff    	jne    402631 <_Z18write_data_to_fileSt6vectorIS_ISt5tupleIIdddEESaIS1_EESaIS3_EESs+0x124>
				out << "\t" << std::get<0>(m) << " " << std::get<1>(m) << " " << std::get<2>(m);
			}

			out << "\n";
  402720:	48 8d 85 d0 fd ff ff 	lea    -0x230(%rbp),%rax
  402727:	be f7 bd 40 00       	mov    $0x40bdf7,%esi
  40272c:	48 89 c7             	mov    %rax,%rdi
  40272f:	e8 ec ef ff ff       	callq  401720 <_ZStlsISt11char_traitsIcEERSt13basic_ostreamIcT_ES5_PKc@plt>
	out.open(out_file);

	try{
		out << "NumberOfThreads\\Workload 1\t\t10\t\t100\t\t1000\t\t10000\t\t100000\t\t1000000\n";

		for (auto i = 0; i < data.size(); ++i){
  402734:	83 85 9c fd ff ff 01 	addl   $0x1,-0x264(%rbp)
  40273b:	8b 85 9c fd ff ff    	mov    -0x264(%rbp),%eax
  402741:	48 63 d8             	movslq %eax,%rbx
  402744:	48 8b 85 88 fd ff ff 	mov    -0x278(%rbp),%rax
  40274b:	48 89 c7             	mov    %rax,%rdi
  40274e:	e8 05 2f 00 00       	callq  405658 <_ZNKSt6vectorIS_ISt5tupleIIdddEESaIS1_EESaIS3_EE4sizeEv>
  402753:	48 39 c3             	cmp    %rax,%rbx
  402756:	0f 92 c0             	setb   %al
  402759:	84 c0                	test   %al,%al
  40275b:	0f 85 63 fe ff ff    	jne    4025c4 <_Z18write_data_to_fileSt6vectorIS_ISt5tupleIIdddEESaIS1_EESaIS3_EESs+0xb7>
			}

			out << "\n";
		}

		std::cout << "Data file was written successfully!" << std::endl;
  402761:	be 00 be 40 00       	mov    $0x40be00,%esi
  402766:	bf 60 42 61 00       	mov    $0x614260,%edi
  40276b:	e8 b0 ef ff ff       	callq  401720 <_ZStlsISt11char_traitsIcEERSt13basic_ostreamIcT_ES5_PKc@plt>
  402770:	be b0 18 40 00       	mov    $0x4018b0,%esi
  402775:	48 89 c7             	mov    %rax,%rdi
  402778:	e8 f3 f0 ff ff       	callq  401870 <_ZNSolsEPFRSoS_E@plt>
	}
	catch(...){
		out.close();
		throw;
	}	
  40277d:	48 8d 85 d0 fd ff ff 	lea    -0x230(%rbp),%rax
  402784:	48 89 c7             	mov    %rax,%rdi
  402787:	e8 04 f0 ff ff       	callq  401790 <_ZNSt14basic_ofstreamIcSt11char_traitsIcEED1Ev@plt>
}
  40278c:	48 8b 45 d8          	mov    -0x28(%rbp),%rax
  402790:	64 48 33 04 25 28 00 	xor    %fs:0x28,%rax
  402797:	00 00 
  402799:	74 4a                	je     4027e5 <_Z18write_data_to_fileSt6vectorIS_ISt5tupleIIdddEESaIS1_EESaIS3_EESs+0x2d8>
  40279b:	eb 43                	jmp    4027e0 <_Z18write_data_to_fileSt6vectorIS_ISt5tupleIIdddEESaIS1_EESaIS3_EESs+0x2d3>
  40279d:	48 89 c3             	mov    %rax,%rbx
			out << "\n";
		}

		std::cout << "Data file was written successfully!" << std::endl;
	}
	catch(...){
  4027a0:	e8 eb f0 ff ff       	callq  401890 <__cxa_end_catch@plt>
  4027a5:	eb 1f                	jmp    4027c6 <_Z18write_data_to_fileSt6vectorIS_ISt5tupleIIdddEESaIS1_EESaIS3_EESs+0x2b9>
  4027a7:	48 89 c7             	mov    %rax,%rdi
  4027aa:	e8 21 f1 ff ff       	callq  4018d0 <__cxa_begin_catch@plt>
		out.close();
  4027af:	48 8d 85 d0 fd ff ff 	lea    -0x230(%rbp),%rax
  4027b6:	48 89 c7             	mov    %rax,%rdi
  4027b9:	e8 f2 ef ff ff       	callq  4017b0 <_ZNSt14basic_ofstreamIcSt11char_traitsIcEE5closeEv@plt>
		throw;
  4027be:	e8 bd ee ff ff       	callq  401680 <__cxa_rethrow@plt>
  4027c3:	48 89 c3             	mov    %rax,%rbx
	}	
  4027c6:	48 8d 85 d0 fd ff ff 	lea    -0x230(%rbp),%rax
  4027cd:	48 89 c7             	mov    %rax,%rdi
  4027d0:	e8 bb ef ff ff       	callq  401790 <_ZNSt14basic_ofstreamIcSt11char_traitsIcEED1Ev@plt>
  4027d5:	48 89 d8             	mov    %rbx,%rax
  4027d8:	48 89 c7             	mov    %rax,%rdi
  4027db:	e8 40 f1 ff ff       	callq  401920 <_Unwind_Resume@plt>
}
  4027e0:	e8 0b f0 ff ff       	callq  4017f0 <__stack_chk_fail@plt>
  4027e5:	48 81 c4 78 02 00 00 	add    $0x278,%rsp
  4027ec:	5b                   	pop    %rbx
  4027ed:	41 5c                	pop    %r12
  4027ef:	41 5d                	pop    %r13
  4027f1:	5d                   	pop    %rbp
  4027f2:	c3                   	retq   

00000000004027f3 <main>:
	}

	exit(1);
}*/

int main(int argc, const char* argv[]){
  4027f3:	55                   	push   %rbp
  4027f4:	48 89 e5             	mov    %rsp,%rbp
  4027f7:	53                   	push   %rbx
  4027f8:	48 81 ec 88 00 00 00 	sub    $0x88,%rsp
  4027ff:	89 bd 7c ff ff ff    	mov    %edi,-0x84(%rbp)
  402805:	48 89 b5 70 ff ff ff 	mov    %rsi,-0x90(%rbp)
	const std::string centralized_sense_reversing_barrier = "CentralizedSenseReversingBarrier";
  40280c:	48 8d 45 d0          	lea    -0x30(%rbp),%rax
  402810:	48 89 c7             	mov    %rax,%rdi
  402813:	e8 d8 f0 ff ff       	callq  4018f0 <_ZNSaIcEC1Ev@plt>
  402818:	48 8d 55 d0          	lea    -0x30(%rbp),%rdx
  40281c:	48 8d 45 80          	lea    -0x80(%rbp),%rax
  402820:	be 28 be 40 00       	mov    $0x40be28,%esi
  402825:	48 89 c7             	mov    %rax,%rdi
  402828:	e8 33 ef ff ff       	callq  401760 <_ZNSsC1EPKcRKSaIcE@plt>
  40282d:	48 8d 45 d0          	lea    -0x30(%rbp),%rax
  402831:	48 89 c7             	mov    %rax,%rdi
  402834:	e8 e7 ef ff ff       	callq  401820 <_ZNSaIcED1Ev@plt>
	
	std::string out_file = "CentralizedSenseReversingBarrierRelaxed2WithHardwarePrefetching";
  402839:	48 8d 45 d0          	lea    -0x30(%rbp),%rax
  40283d:	48 89 c7             	mov    %rax,%rdi
  402840:	e8 ab f0 ff ff       	callq  4018f0 <_ZNSaIcEC1Ev@plt>
  402845:	48 8d 55 d0          	lea    -0x30(%rbp),%rdx
  402849:	48 8d 45 90          	lea    -0x70(%rbp),%rax
  40284d:	be 50 be 40 00       	mov    $0x40be50,%esi
  402852:	48 89 c7             	mov    %rax,%rdi
  402855:	e8 06 ef ff ff       	callq  401760 <_ZNSsC1EPKcRKSaIcE@plt>
  40285a:	48 8d 45 d0          	lea    -0x30(%rbp),%rax
  40285e:	48 89 c7             	mov    %rax,%rdi
  402861:	e8 ba ef ff ff       	callq  401820 <_ZNSaIcED1Ev@plt>

	auto data = run_experiment();
  402866:	48 8d 45 b0          	lea    -0x50(%rbp),%rax
  40286a:	48 89 c7             	mov    %rax,%rdi
  40286d:	e8 a9 f6 ff ff       	callq  401f1b <_Z14run_experimentv>
	
	write_data_to_file(data, out_file);
  402872:	48 8d 55 90          	lea    -0x70(%rbp),%rdx
  402876:	48 8d 45 a0          	lea    -0x60(%rbp),%rax
  40287a:	48 89 d6             	mov    %rdx,%rsi
  40287d:	48 89 c7             	mov    %rax,%rdi
  402880:	e8 3b ee ff ff       	callq  4016c0 <_ZNSsC1ERKSs@plt>
  402885:	48 8d 55 b0          	lea    -0x50(%rbp),%rdx
  402889:	48 8d 45 d0          	lea    -0x30(%rbp),%rax
  40288d:	48 89 d6             	mov    %rdx,%rsi
  402890:	48 89 c7             	mov    %rax,%rdi
  402893:	e8 b8 31 00 00       	callq  405a50 <_ZNSt6vectorIS_ISt5tupleIIdddEESaIS1_EESaIS3_EEC1ERKS5_>
  402898:	48 8d 55 a0          	lea    -0x60(%rbp),%rdx
  40289c:	48 8d 45 d0          	lea    -0x30(%rbp),%rax
  4028a0:	48 89 d6             	mov    %rdx,%rsi
  4028a3:	48 89 c7             	mov    %rax,%rdi
  4028a6:	e8 62 fc ff ff       	callq  40250d <_Z18write_data_to_fileSt6vectorIS_ISt5tupleIIdddEESaIS1_EESaIS3_EESs>
  4028ab:	48 8d 45 d0          	lea    -0x30(%rbp),%rax
  4028af:	48 89 c7             	mov    %rax,%rdi
  4028b2:	e8 cd 2c 00 00       	callq  405584 <_ZNSt6vectorIS_ISt5tupleIIdddEESaIS1_EESaIS3_EED1Ev>
  4028b7:	48 8d 45 a0          	lea    -0x60(%rbp),%rax
  4028bb:	48 89 c7             	mov    %rax,%rdi
  4028be:	e8 6d ee ff ff       	callq  401730 <_ZNSsD1Ev@plt>
	
	return (0);
  4028c3:	bb 00 00 00 00       	mov    $0x0,%ebx
int main(int argc, const char* argv[]){
	const std::string centralized_sense_reversing_barrier = "CentralizedSenseReversingBarrier";
	
	std::string out_file = "CentralizedSenseReversingBarrierRelaxed2WithHardwarePrefetching";

	auto data = run_experiment();
  4028c8:	48 8d 45 b0          	lea    -0x50(%rbp),%rax
  4028cc:	48 89 c7             	mov    %rax,%rdi
  4028cf:	e8 b0 2c 00 00       	callq  405584 <_ZNSt6vectorIS_ISt5tupleIIdddEESaIS1_EESaIS3_EED1Ev>
}*/

int main(int argc, const char* argv[]){
	const std::string centralized_sense_reversing_barrier = "CentralizedSenseReversingBarrier";
	
	std::string out_file = "CentralizedSenseReversingBarrierRelaxed2WithHardwarePrefetching";
  4028d4:	48 8d 45 90          	lea    -0x70(%rbp),%rax
  4028d8:	48 89 c7             	mov    %rax,%rdi
  4028db:	e8 50 ee ff ff       	callq  401730 <_ZNSsD1Ev@plt>

	auto data = run_experiment();
	
	write_data_to_file(data, out_file);
	
	return (0);
  4028e0:	48 8d 45 80          	lea    -0x80(%rbp),%rax
  4028e4:	48 89 c7             	mov    %rax,%rdi
  4028e7:	e8 44 ee ff ff       	callq  401730 <_ZNSsD1Ev@plt>
  4028ec:	89 d8                	mov    %ebx,%eax
  4028ee:	e9 84 00 00 00       	jmpq   402977 <main+0x184>
  4028f3:	48 89 c3             	mov    %rax,%rbx
  4028f6:	48 8d 45 d0          	lea    -0x30(%rbp),%rax
  4028fa:	48 89 c7             	mov    %rax,%rdi
  4028fd:	e8 1e ef ff ff       	callq  401820 <_ZNSaIcED1Ev@plt>
  402902:	48 89 d8             	mov    %rbx,%rax
  402905:	48 89 c7             	mov    %rax,%rdi
  402908:	e8 13 f0 ff ff       	callq  401920 <_Unwind_Resume@plt>
  40290d:	48 89 c3             	mov    %rax,%rbx
  402910:	48 8d 45 d0          	lea    -0x30(%rbp),%rax
  402914:	48 89 c7             	mov    %rax,%rdi
  402917:	e8 04 ef ff ff       	callq  401820 <_ZNSaIcED1Ev@plt>
  40291c:	eb 42                	jmp    402960 <main+0x16d>
  40291e:	48 89 c3             	mov    %rax,%rbx
	
	std::string out_file = "CentralizedSenseReversingBarrierRelaxed2WithHardwarePrefetching";

	auto data = run_experiment();
	
	write_data_to_file(data, out_file);
  402921:	48 8d 45 d0          	lea    -0x30(%rbp),%rax
  402925:	48 89 c7             	mov    %rax,%rdi
  402928:	e8 57 2c 00 00       	callq  405584 <_ZNSt6vectorIS_ISt5tupleIIdddEESaIS1_EESaIS3_EED1Ev>
  40292d:	eb 03                	jmp    402932 <main+0x13f>
  40292f:	48 89 c3             	mov    %rax,%rbx
  402932:	48 8d 45 a0          	lea    -0x60(%rbp),%rax
  402936:	48 89 c7             	mov    %rax,%rdi
  402939:	e8 f2 ed ff ff       	callq  401730 <_ZNSsD1Ev@plt>
  40293e:	eb 03                	jmp    402943 <main+0x150>
  402940:	48 89 c3             	mov    %rax,%rbx
int main(int argc, const char* argv[]){
	const std::string centralized_sense_reversing_barrier = "CentralizedSenseReversingBarrier";
	
	std::string out_file = "CentralizedSenseReversingBarrierRelaxed2WithHardwarePrefetching";

	auto data = run_experiment();
  402943:	48 8d 45 b0          	lea    -0x50(%rbp),%rax
  402947:	48 89 c7             	mov    %rax,%rdi
  40294a:	e8 35 2c 00 00       	callq  405584 <_ZNSt6vectorIS_ISt5tupleIIdddEESaIS1_EESaIS3_EED1Ev>
  40294f:	eb 03                	jmp    402954 <main+0x161>
  402951:	48 89 c3             	mov    %rax,%rbx
}*/

int main(int argc, const char* argv[]){
	const std::string centralized_sense_reversing_barrier = "CentralizedSenseReversingBarrier";
	
	std::string out_file = "CentralizedSenseReversingBarrierRelaxed2WithHardwarePrefetching";
  402954:	48 8d 45 90          	lea    -0x70(%rbp),%rax
  402958:	48 89 c7             	mov    %rax,%rdi
  40295b:	e8 d0 ed ff ff       	callq  401730 <_ZNSsD1Ev@plt>

	auto data = run_experiment();
	
	write_data_to_file(data, out_file);
	
	return (0);
  402960:	48 8d 45 80          	lea    -0x80(%rbp),%rax
  402964:	48 89 c7             	mov    %rax,%rdi
  402967:	e8 c4 ed ff ff       	callq  401730 <_ZNSsD1Ev@plt>
  40296c:	48 89 d8             	mov    %rbx,%rax
  40296f:	48 89 c7             	mov    %rax,%rdi
  402972:	e8 a9 ef ff ff       	callq  401920 <_Unwind_Resume@plt>
}
  402977:	48 81 c4 88 00 00 00 	add    $0x88,%rsp
  40297e:	5b                   	pop    %rbx
  40297f:	5d                   	pop    %rbp
  402980:	c3                   	retq   

0000000000402981 <_ZSt7forwardIRZ14run_experimentvEUlRN7barrier35centralized_sense_reversing_barrierEmmRSt6atomicIbEE_EOT_RNSt16remove_referenceIS8_E4typeE>:
   *
   *  This function is used to implement "perfect forwarding".
   */
  template<typename _Tp>
    constexpr _Tp&&
    forward(typename std::remove_reference<_Tp>::type& __t) noexcept
  402981:	55                   	push   %rbp
  402982:	48 89 e5             	mov    %rsp,%rbp
  402985:	48 89 7d f8          	mov    %rdi,-0x8(%rbp)
    { return static_cast<_Tp&&>(__t); }
  402989:	48 8b 45 f8          	mov    -0x8(%rbp),%rax
  40298d:	5d                   	pop    %rbp
  40298e:	c3                   	retq   
  40298f:	90                   	nop

0000000000402990 <_ZNSt12__shared_ptrINSt6thread5_ImplISt12_Bind_simpleIFZ14run_experimentvEUlRN7barrier35centralized_sense_reversing_barrierEmmRSt6atomicIbEE_St17reference_wrapperIS4_EmmSA_IS7_EEEEELN9__gnu_cxx12_Lock_policyE2EED2Ev>:
	: _M_ptr(__p), _M_refcount(__r._M_refcount) // never throws
	{ }

      __shared_ptr(const __shared_ptr&) noexcept = default;
      __shared_ptr& operator=(const __shared_ptr&) noexcept = default;
      ~__shared_ptr() = default;
  402990:	55                   	push   %rbp
  402991:	48 89 e5             	mov    %rsp,%rbp
  402994:	48 83 ec 10          	sub    $0x10,%rsp
  402998:	48 89 7d f8          	mov    %rdi,-0x8(%rbp)
  40299c:	48 8b 45 f8          	mov    -0x8(%rbp),%rax
  4029a0:	48 83 c0 08          	add    $0x8,%rax
  4029a4:	48 89 c7             	mov    %rax,%rdi
  4029a7:	e8 16 25 00 00       	callq  404ec2 <_ZNSt14__shared_countILN9__gnu_cxx12_Lock_policyE2EED1Ev>
  4029ac:	c9                   	leaveq 
  4029ad:	c3                   	retq   

00000000004029ae <_ZNSt10shared_ptrINSt6thread5_ImplISt12_Bind_simpleIFZ14run_experimentvEUlRN7barrier35centralized_sense_reversing_barrierEmmRSt6atomicIbEE_St17reference_wrapperIS4_EmmSA_IS7_EEEEEED1Ev>:
   *
   *  The object pointed to is deleted when the last shared_ptr pointing to
   *  it is destroyed or reset.
  */
  template<typename _Tp>
    class shared_ptr : public __shared_ptr<_Tp>
  4029ae:	55                   	push   %rbp
  4029af:	48 89 e5             	mov    %rsp,%rbp
  4029b2:	48 83 ec 10          	sub    $0x10,%rsp
  4029b6:	48 89 7d f8          	mov    %rdi,-0x8(%rbp)
  4029ba:	48 8b 45 f8          	mov    -0x8(%rbp),%rax
  4029be:	48 89 c7             	mov    %rax,%rdi
  4029c1:	e8 ca ff ff ff       	callq  402990 <_ZNSt12__shared_ptrINSt6thread5_ImplISt12_Bind_simpleIFZ14run_experimentvEUlRN7barrier35centralized_sense_reversing_barrierEmmRSt6atomicIbEE_St17reference_wrapperIS4_EmmSA_IS7_EEEEELN9__gnu_cxx12_Lock_policyE2EED2Ev>
  4029c6:	c9                   	leaveq 
  4029c7:	c3                   	retq   

00000000004029c8 <_ZNSt6threadC1IRZ14run_experimentvEUlRN7barrier35centralized_sense_reversing_barrierEmmRSt6atomicIbEE_ISt17reference_wrapperIS2_ERKmRmS9_IS5_EEEEOT_DpOT0_>:
    thread(thread&& __t) noexcept
    { swap(__t); }

    template<typename _Callable, typename... _Args>
      explicit 
      thread(_Callable&& __f, _Args&&... __args)
  4029c8:	55                   	push   %rbp
  4029c9:	48 89 e5             	mov    %rsp,%rbp
  4029cc:	41 56                	push   %r14
  4029ce:	41 55                	push   %r13
  4029d0:	41 54                	push   %r12
  4029d2:	53                   	push   %rbx
  4029d3:	48 83 ec 70          	sub    $0x70,%rsp
  4029d7:	48 89 7d 98          	mov    %rdi,-0x68(%rbp)
  4029db:	48 89 75 90          	mov    %rsi,-0x70(%rbp)
  4029df:	48 89 55 88          	mov    %rdx,-0x78(%rbp)
  4029e3:	48 89 4d 80          	mov    %rcx,-0x80(%rbp)
  4029e7:	4c 89 85 78 ff ff ff 	mov    %r8,-0x88(%rbp)
  4029ee:	4c 89 8d 70 ff ff ff 	mov    %r9,-0x90(%rbp)
      {
  4029f5:	48 8b 45 98          	mov    -0x68(%rbp),%rax
  4029f9:	48 89 c7             	mov    %rax,%rdi
  4029fc:	e8 21 12 00 00       	callq  403c22 <_ZNSt6thread2idC1Ev>
        _M_start_thread(_M_make_routine(std::__bind_simple(
                std::forward<_Callable>(__f),
                std::forward<_Args>(__args)...)));
  402a01:	48 8b 85 70 ff ff ff 	mov    -0x90(%rbp),%rax
  402a08:	48 89 c7             	mov    %rax,%rdi
  402a0b:	e8 07 2f 00 00       	callq  405917 <_ZSt7forwardISt17reference_wrapperISt6atomicIbEEEOT_RNSt16remove_referenceIS4_E4typeE>
  402a10:	49 89 c6             	mov    %rax,%r14
  402a13:	48 8b 85 78 ff ff ff 	mov    -0x88(%rbp),%rax
  402a1a:	48 89 c7             	mov    %rax,%rdi
  402a1d:	e8 e7 2e 00 00       	callq  405909 <_ZSt7forwardIRmEOT_RNSt16remove_referenceIS1_E4typeE>
  402a22:	49 89 c5             	mov    %rax,%r13
  402a25:	48 8b 45 80          	mov    -0x80(%rbp),%rax
  402a29:	48 89 c7             	mov    %rax,%rdi
  402a2c:	e8 ca 2e 00 00       	callq  4058fb <_ZSt7forwardIRKmEOT_RNSt16remove_referenceIS2_E4typeE>
  402a31:	49 89 c4             	mov    %rax,%r12
  402a34:	48 8b 45 88          	mov    -0x78(%rbp),%rax
  402a38:	48 89 c7             	mov    %rax,%rdi
  402a3b:	e8 ad 2e 00 00       	callq  4058ed <_ZSt7forwardISt17reference_wrapperIN7barrier35centralized_sense_reversing_barrierEEEOT_RNSt16remove_referenceIS4_E4typeE>
  402a40:	48 89 c3             	mov    %rax,%rbx
    template<typename _Callable, typename... _Args>
      explicit 
      thread(_Callable&& __f, _Args&&... __args)
      {
        _M_start_thread(_M_make_routine(std::__bind_simple(
                std::forward<_Callable>(__f),
  402a43:	48 8b 45 90          	mov    -0x70(%rbp),%rax
  402a47:	48 89 c7             	mov    %rax,%rdi
  402a4a:	e8 32 ff ff ff       	callq  402981 <_ZSt7forwardIRZ14run_experimentvEUlRN7barrier35centralized_sense_reversing_barrierEmmRSt6atomicIbEE_EOT_RNSt16remove_referenceIS8_E4typeE>
  402a4f:	48 89 c6             	mov    %rax,%rsi

    template<typename _Callable, typename... _Args>
      explicit 
      thread(_Callable&& __f, _Args&&... __args)
      {
        _M_start_thread(_M_make_routine(std::__bind_simple(
  402a52:	48 8d 45 c0          	lea    -0x40(%rbp),%rax
  402a56:	4d 89 f1             	mov    %r14,%r9
  402a59:	4d 89 e8             	mov    %r13,%r8
  402a5c:	4c 89 e1             	mov    %r12,%rcx
  402a5f:	48 89 da             	mov    %rbx,%rdx
  402a62:	48 89 c7             	mov    %rax,%rdi
  402a65:	e8 95 01 00 00       	callq  402bff <_ZSt13__bind_simpleIRZ14run_experimentvEUlRN7barrier35centralized_sense_reversing_barrierEmmRSt6atomicIbEE_ISt17reference_wrapperIS1_ERKmRmS8_IS4_EEENSt19_Bind_simple_helperIT_IDpT0_EE6__typeEOSF_DpOSG_>
  402a6a:	48 8d 45 b0          	lea    -0x50(%rbp),%rax
  402a6e:	48 8d 55 c0          	lea    -0x40(%rbp),%rdx
  402a72:	48 8b 4d 98          	mov    -0x68(%rbp),%rcx
  402a76:	48 89 ce             	mov    %rcx,%rsi
  402a79:	48 89 c7             	mov    %rax,%rdi
  402a7c:	e8 2f 02 00 00       	callq  402cb0 <_ZNSt6thread15_M_make_routineISt12_Bind_simpleIFZ14run_experimentvEUlRN7barrier35centralized_sense_reversing_barrierEmmRSt6atomicIbEE_St17reference_wrapperIS3_EmmS9_IS6_EEEEESt10shared_ptrINS_5_ImplIT_EEEOSG_>
  402a81:	48 8d 55 b0          	lea    -0x50(%rbp),%rdx
  402a85:	48 8d 45 a0          	lea    -0x60(%rbp),%rax
  402a89:	48 89 d6             	mov    %rdx,%rsi
  402a8c:	48 89 c7             	mov    %rax,%rdi
  402a8f:	e8 62 02 00 00       	callq  402cf6 <_ZNSt10shared_ptrINSt6thread10_Impl_baseEEC1INS0_5_ImplISt12_Bind_simpleIFZ14run_experimentvEUlRN7barrier35centralized_sense_reversing_barrierEmmRSt6atomicIbEE_St17reference_wrapperIS7_EmmSD_ISA_EEEEEvEEOS_IT_E>
  402a94:	48 8d 55 a0          	lea    -0x60(%rbp),%rdx
  402a98:	48 8b 45 98          	mov    -0x68(%rbp),%rax
  402a9c:	48 89 d6             	mov    %rdx,%rsi
  402a9f:	48 89 c7             	mov    %rax,%rdi
  402aa2:	e8 49 ec ff ff       	callq  4016f0 <_ZNSt6thread15_M_start_threadESt10shared_ptrINS_10_Impl_baseEE@plt>
  402aa7:	48 8d 45 a0          	lea    -0x60(%rbp),%rax
  402aab:	48 89 c7             	mov    %rax,%rdi
  402aae:	e8 8b 12 00 00       	callq  403d3e <_ZNSt10shared_ptrINSt6thread10_Impl_baseEED1Ev>
  402ab3:	48 8d 45 b0          	lea    -0x50(%rbp),%rax
  402ab7:	48 89 c7             	mov    %rax,%rdi
  402aba:	e8 ef fe ff ff       	callq  4029ae <_ZNSt10shared_ptrINSt6thread5_ImplISt12_Bind_simpleIFZ14run_experimentvEUlRN7barrier35centralized_sense_reversing_barrierEmmRSt6atomicIbEE_St17reference_wrapperIS4_EmmSA_IS7_EEEEEED1Ev>
  402abf:	eb 26                	jmp    402ae7 <_ZNSt6threadC1IRZ14run_experimentvEUlRN7barrier35centralized_sense_reversing_barrierEmmRSt6atomicIbEE_ISt17reference_wrapperIS2_ERKmRmS9_IS5_EEEEOT_DpOT0_+0x11f>
  402ac1:	48 89 c3             	mov    %rax,%rbx
  402ac4:	48 8d 45 a0          	lea    -0x60(%rbp),%rax
  402ac8:	48 89 c7             	mov    %rax,%rdi
  402acb:	e8 6e 12 00 00       	callq  403d3e <_ZNSt10shared_ptrINSt6thread10_Impl_baseEED1Ev>
  402ad0:	48 8d 45 b0          	lea    -0x50(%rbp),%rax
  402ad4:	48 89 c7             	mov    %rax,%rdi
  402ad7:	e8 d2 fe ff ff       	callq  4029ae <_ZNSt10shared_ptrINSt6thread5_ImplISt12_Bind_simpleIFZ14run_experimentvEUlRN7barrier35centralized_sense_reversing_barrierEmmRSt6atomicIbEE_St17reference_wrapperIS4_EmmSA_IS7_EEEEEED1Ev>
  402adc:	48 89 d8             	mov    %rbx,%rax
  402adf:	48 89 c7             	mov    %rax,%rdi
  402ae2:	e8 39 ee ff ff       	callq  401920 <_Unwind_Resume@plt>
                std::forward<_Callable>(__f),
                std::forward<_Args>(__args)...)));
      }
  402ae7:	48 83 c4 70          	add    $0x70,%rsp
  402aeb:	5b                   	pop    %rbx
  402aec:	41 5c                	pop    %r12
  402aee:	41 5d                	pop    %r13
  402af0:	41 5e                	pop    %r14
  402af2:	5d                   	pop    %rbp
  402af3:	c3                   	retq   

0000000000402af4 <_ZNSt11_Tuple_implILm0EIZ14run_experimentvEUlRN7barrier35centralized_sense_reversing_barrierEmmRSt6atomicIbEE_St17reference_wrapperIS1_EmmS7_IS4_EEE7_M_tailERSA_>:

      static constexpr const _Head&
      _M_head(const _Tuple_impl& __t) noexcept { return _Base::_M_head(__t); }

      static constexpr _Inherited&
      _M_tail(_Tuple_impl& __t) noexcept { return __t; }
  402af4:	55                   	push   %rbp
  402af5:	48 89 e5             	mov    %rsp,%rbp
  402af8:	48 89 7d f8          	mov    %rdi,-0x8(%rbp)
  402afc:	48 8b 45 f8          	mov    -0x8(%rbp),%rax
  402b00:	5d                   	pop    %rbp
  402b01:	c3                   	retq   

0000000000402b02 <_ZNSt10_Head_baseILm0EZ14run_experimentvEUlRN7barrier35centralized_sense_reversing_barrierEmmRSt6atomicIbEE_Lb1EE7_M_headERS7_>:
      template<typename _Alloc, typename _UHead>
	_Head_base(__uses_alloc2<_Alloc> __a, _UHead&& __uhead)
	: _Head(std::forward<_UHead>(__uhead), *__a._M_a) { }

      static constexpr _Head&
      _M_head(_Head_base& __b) noexcept { return __b; }
  402b02:	55                   	push   %rbp
  402b03:	48 89 e5             	mov    %rsp,%rbp
  402b06:	48 89 7d f8          	mov    %rdi,-0x8(%rbp)
  402b0a:	48 8b 45 f8          	mov    -0x8(%rbp),%rax
  402b0e:	5d                   	pop    %rbp
  402b0f:	c3                   	retq   

0000000000402b10 <_ZNSt11_Tuple_implILm0EIZ14run_experimentvEUlRN7barrier35centralized_sense_reversing_barrierEmmRSt6atomicIbEE_St17reference_wrapperIS1_EmmS7_IS4_EEE7_M_headERSA_>:

      typedef _Tuple_impl<_Idx + 1, _Tail...> _Inherited;
      typedef _Head_base<_Idx, _Head, __empty_not_final<_Head>::value> _Base;

      static constexpr _Head&  
      _M_head(_Tuple_impl& __t) noexcept { return _Base::_M_head(__t); }
  402b10:	55                   	push   %rbp
  402b11:	48 89 e5             	mov    %rsp,%rbp
  402b14:	48 83 ec 08          	sub    $0x8,%rsp
  402b18:	48 89 7d f8          	mov    %rdi,-0x8(%rbp)
  402b1c:	48 8b 45 f8          	mov    -0x8(%rbp),%rax
  402b20:	48 89 c7             	mov    %rax,%rdi
  402b23:	e8 da ff ff ff       	callq  402b02 <_ZNSt10_Head_baseILm0EZ14run_experimentvEUlRN7barrier35centralized_sense_reversing_barrierEmmRSt6atomicIbEE_Lb1EE7_M_headERS7_>
  402b28:	c9                   	leaveq 
  402b29:	c3                   	retq   

0000000000402b2a <_ZSt7forwardIZ14run_experimentvEUlRN7barrier35centralized_sense_reversing_barrierEmmRSt6atomicIbEE_EOT_RNSt16remove_referenceIS7_E4typeE>:
   *
   *  This function is used to implement "perfect forwarding".
   */
  template<typename _Tp>
    constexpr _Tp&&
    forward(typename std::remove_reference<_Tp>::type& __t) noexcept
  402b2a:	55                   	push   %rbp
  402b2b:	48 89 e5             	mov    %rsp,%rbp
  402b2e:	48 89 7d f8          	mov    %rdi,-0x8(%rbp)
    { return static_cast<_Tp&&>(__t); }
  402b32:	48 8b 45 f8          	mov    -0x8(%rbp),%rax
  402b36:	5d                   	pop    %rbp
  402b37:	c3                   	retq   

0000000000402b38 <_ZNSt10_Head_baseILm0EZ14run_experimentvEUlRN7barrier35centralized_sense_reversing_barrierEmmRSt6atomicIbEE_Lb1EEC2IS6_vEEOT_>:
      : _Head(__h) { }

      template<typename _UHead, typename = typename
	       enable_if<!is_convertible<_UHead,
	                                 __uses_alloc_base>::value>::type>
        constexpr _Head_base(_UHead&& __h)
  402b38:	55                   	push   %rbp
  402b39:	48 89 e5             	mov    %rsp,%rbp
  402b3c:	48 83 ec 10          	sub    $0x10,%rsp
  402b40:	48 89 7d f8          	mov    %rdi,-0x8(%rbp)
  402b44:	48 89 75 f0          	mov    %rsi,-0x10(%rbp)
	: _Head(std::forward<_UHead>(__h)) { }
  402b48:	48 8b 45 f0          	mov    -0x10(%rbp),%rax
  402b4c:	48 89 c7             	mov    %rax,%rdi
  402b4f:	e8 d6 ff ff ff       	callq  402b2a <_ZSt7forwardIZ14run_experimentvEUlRN7barrier35centralized_sense_reversing_barrierEmmRSt6atomicIbEE_EOT_RNSt16remove_referenceIS7_E4typeE>
  402b54:	c9                   	leaveq 
  402b55:	c3                   	retq   

0000000000402b56 <_ZNSt11_Tuple_implILm0EIZ14run_experimentvEUlRN7barrier35centralized_sense_reversing_barrierEmmRSt6atomicIbEE_St17reference_wrapperIS1_EmmS7_IS4_EEEC2EOSA_>:
	  _Base(std::forward<_UHead>(__head)) { }

      constexpr _Tuple_impl(const _Tuple_impl&) = default;

      constexpr
      _Tuple_impl(_Tuple_impl&& __in)
  402b56:	55                   	push   %rbp
  402b57:	48 89 e5             	mov    %rsp,%rbp
  402b5a:	48 83 ec 10          	sub    $0x10,%rsp
  402b5e:	48 89 7d f8          	mov    %rdi,-0x8(%rbp)
  402b62:	48 89 75 f0          	mov    %rsi,-0x10(%rbp)
      noexcept(__and_<is_nothrow_move_constructible<_Head>,
	              is_nothrow_move_constructible<_Inherited>>::value)
      : _Inherited(std::move(_M_tail(__in))), 
  402b66:	48 8b 45 f0          	mov    -0x10(%rbp),%rax
  402b6a:	48 89 c7             	mov    %rax,%rdi
  402b6d:	e8 82 ff ff ff       	callq  402af4 <_ZNSt11_Tuple_implILm0EIZ14run_experimentvEUlRN7barrier35centralized_sense_reversing_barrierEmmRSt6atomicIbEE_St17reference_wrapperIS1_EmmS7_IS4_EEE7_M_tailERSA_>
  402b72:	48 89 c7             	mov    %rax,%rdi
  402b75:	e8 1d 4a 00 00       	callq  407597 <_ZSt4moveIRSt11_Tuple_implILm1EISt17reference_wrapperIN7barrier35centralized_sense_reversing_barrierEEmmS1_ISt6atomicIbEEEEEONSt16remove_referenceIT_E4typeEOSB_>
  402b7a:	48 89 c2             	mov    %rax,%rdx
	_Base(std::forward<_Head>(_M_head(__in))) { }
  402b7d:	48 8b 45 f8          	mov    -0x8(%rbp),%rax
  402b81:	48 89 d6             	mov    %rdx,%rsi
  402b84:	48 89 c7             	mov    %rax,%rdi
  402b87:	e8 ac 49 00 00       	callq  407538 <_ZNSt11_Tuple_implILm1EISt17reference_wrapperIN7barrier35centralized_sense_reversing_barrierEEmmS0_ISt6atomicIbEEEEC1EOS7_>
  402b8c:	48 8b 45 f0          	mov    -0x10(%rbp),%rax
  402b90:	48 89 c7             	mov    %rax,%rdi
  402b93:	e8 78 ff ff ff       	callq  402b10 <_ZNSt11_Tuple_implILm0EIZ14run_experimentvEUlRN7barrier35centralized_sense_reversing_barrierEmmRSt6atomicIbEE_St17reference_wrapperIS1_EmmS7_IS4_EEE7_M_headERSA_>
  402b98:	48 89 c7             	mov    %rax,%rdi
  402b9b:	e8 8a ff ff ff       	callq  402b2a <_ZSt7forwardIZ14run_experimentvEUlRN7barrier35centralized_sense_reversing_barrierEmmRSt6atomicIbEE_EOT_RNSt16remove_referenceIS7_E4typeE>
  402ba0:	48 89 c2             	mov    %rax,%rdx
  402ba3:	48 8b 45 f8          	mov    -0x8(%rbp),%rax
  402ba7:	48 89 d6             	mov    %rdx,%rsi
  402baa:	48 89 c7             	mov    %rax,%rdi
  402bad:	e8 86 ff ff ff       	callq  402b38 <_ZNSt10_Head_baseILm0EZ14run_experimentvEUlRN7barrier35centralized_sense_reversing_barrierEmmRSt6atomicIbEE_Lb1EEC2IS6_vEEOT_>
  402bb2:	c9                   	leaveq 
  402bb3:	c3                   	retq   

0000000000402bb4 <_ZNSt5tupleIIZ14run_experimentvEUlRN7barrier35centralized_sense_reversing_barrierEmmRSt6atomicIbEE_St17reference_wrapperIS1_EmmS7_IS4_EEEC1EOSA_>:
        constexpr tuple(_UElements&&... __elements)
	: _Inherited(std::forward<_UElements>(__elements)...) {	}

      constexpr tuple(const tuple&) = default;

      constexpr tuple(tuple&&) = default; 
  402bb4:	55                   	push   %rbp
  402bb5:	48 89 e5             	mov    %rsp,%rbp
  402bb8:	48 83 ec 10          	sub    $0x10,%rsp
  402bbc:	48 89 7d f8          	mov    %rdi,-0x8(%rbp)
  402bc0:	48 89 75 f0          	mov    %rsi,-0x10(%rbp)
  402bc4:	48 8b 55 f0          	mov    -0x10(%rbp),%rdx
  402bc8:	48 8b 45 f8          	mov    -0x8(%rbp),%rax
  402bcc:	48 89 d6             	mov    %rdx,%rsi
  402bcf:	48 89 c7             	mov    %rax,%rdi
  402bd2:	e8 7f ff ff ff       	callq  402b56 <_ZNSt11_Tuple_implILm0EIZ14run_experimentvEUlRN7barrier35centralized_sense_reversing_barrierEmmRSt6atomicIbEE_St17reference_wrapperIS1_EmmS7_IS4_EEEC2EOSA_>
  402bd7:	c9                   	leaveq 
  402bd8:	c3                   	retq   
  402bd9:	90                   	nop

0000000000402bda <_ZNSt12_Bind_simpleIFZ14run_experimentvEUlRN7barrier35centralized_sense_reversing_barrierEmmRSt6atomicIbEE_St17reference_wrapperIS1_EmmS7_IS4_EEEC1EOSB_>:
        _Bind_simple(_Callable&& __callable, _Args2&&... __args)
        : _M_bound(std::move(__callable), std::forward<_Args2>(__args)...)
        { }

      _Bind_simple(const _Bind_simple&) = default;
      _Bind_simple(_Bind_simple&&) = default;
  402bda:	55                   	push   %rbp
  402bdb:	48 89 e5             	mov    %rsp,%rbp
  402bde:	48 83 ec 10          	sub    $0x10,%rsp
  402be2:	48 89 7d f8          	mov    %rdi,-0x8(%rbp)
  402be6:	48 89 75 f0          	mov    %rsi,-0x10(%rbp)
  402bea:	48 8b 55 f0          	mov    -0x10(%rbp),%rdx
  402bee:	48 8b 45 f8          	mov    -0x8(%rbp),%rax
  402bf2:	48 89 d6             	mov    %rdx,%rsi
  402bf5:	48 89 c7             	mov    %rax,%rdi
  402bf8:	e8 b7 ff ff ff       	callq  402bb4 <_ZNSt5tupleIIZ14run_experimentvEUlRN7barrier35centralized_sense_reversing_barrierEmmRSt6atomicIbEE_St17reference_wrapperIS1_EmmS7_IS4_EEEC1EOSA_>
  402bfd:	c9                   	leaveq 
  402bfe:	c3                   	retq   

0000000000402bff <_ZSt13__bind_simpleIRZ14run_experimentvEUlRN7barrier35centralized_sense_reversing_barrierEmmRSt6atomicIbEE_ISt17reference_wrapperIS1_ERKmRmS8_IS4_EEENSt19_Bind_simple_helperIT_IDpT0_EE6__typeEOSF_DpOSG_>:

  // Simplified version of std::bind for internal use, without support for
  // unbound arguments, placeholders or nested bind expressions.
  template<typename _Callable, typename... _Args>
    typename _Bind_simple_helper<_Callable, _Args...>::__type
    __bind_simple(_Callable&& __callable, _Args&&... __args)
  402bff:	55                   	push   %rbp
  402c00:	48 89 e5             	mov    %rsp,%rbp
  402c03:	41 56                	push   %r14
  402c05:	41 55                	push   %r13
  402c07:	41 54                	push   %r12
  402c09:	53                   	push   %rbx
  402c0a:	48 83 ec 30          	sub    $0x30,%rsp
  402c0e:	48 89 7d d8          	mov    %rdi,-0x28(%rbp)
  402c12:	48 89 75 d0          	mov    %rsi,-0x30(%rbp)
  402c16:	48 89 55 c8          	mov    %rdx,-0x38(%rbp)
  402c1a:	48 89 4d c0          	mov    %rcx,-0x40(%rbp)
  402c1e:	4c 89 45 b8          	mov    %r8,-0x48(%rbp)
  402c22:	4c 89 4d b0          	mov    %r9,-0x50(%rbp)
      typedef _Bind_simple_helper<_Callable, _Args...> __helper_type;
      typedef typename __helper_type::__maybe_type __maybe_type;
      typedef typename __helper_type::__type __result_type;
      return __result_type(
          __maybe_type::__do_wrap( std::forward<_Callable>(__callable)),
          std::forward<_Args>(__args)...);
  402c26:	48 8b 45 b0          	mov    -0x50(%rbp),%rax
  402c2a:	48 89 c7             	mov    %rax,%rdi
  402c2d:	e8 e5 2c 00 00       	callq  405917 <_ZSt7forwardISt17reference_wrapperISt6atomicIbEEEOT_RNSt16remove_referenceIS4_E4typeE>
  402c32:	49 89 c6             	mov    %rax,%r14
  402c35:	48 8b 45 b8          	mov    -0x48(%rbp),%rax
  402c39:	48 89 c7             	mov    %rax,%rdi
  402c3c:	e8 c8 2c 00 00       	callq  405909 <_ZSt7forwardIRmEOT_RNSt16remove_referenceIS1_E4typeE>
  402c41:	49 89 c5             	mov    %rax,%r13
  402c44:	48 8b 45 c0          	mov    -0x40(%rbp),%rax
  402c48:	48 89 c7             	mov    %rax,%rdi
  402c4b:	e8 ab 2c 00 00       	callq  4058fb <_ZSt7forwardIRKmEOT_RNSt16remove_referenceIS2_E4typeE>
  402c50:	49 89 c4             	mov    %rax,%r12
  402c53:	48 8b 45 c8          	mov    -0x38(%rbp),%rax
  402c57:	48 89 c7             	mov    %rax,%rdi
  402c5a:	e8 8e 2c 00 00       	callq  4058ed <_ZSt7forwardISt17reference_wrapperIN7barrier35centralized_sense_reversing_barrierEEEOT_RNSt16remove_referenceIS4_E4typeE>
  402c5f:	48 89 c3             	mov    %rax,%rbx
    {
      typedef _Bind_simple_helper<_Callable, _Args...> __helper_type;
      typedef typename __helper_type::__maybe_type __maybe_type;
      typedef typename __helper_type::__type __result_type;
      return __result_type(
          __maybe_type::__do_wrap( std::forward<_Callable>(__callable)),
  402c62:	48 8b 45 d0          	mov    -0x30(%rbp),%rax
  402c66:	48 89 c7             	mov    %rax,%rdi
  402c69:	e8 13 fd ff ff       	callq  402981 <_ZSt7forwardIRZ14run_experimentvEUlRN7barrier35centralized_sense_reversing_barrierEmmRSt6atomicIbEE_EOT_RNSt16remove_referenceIS8_E4typeE>
  402c6e:	48 89 c7             	mov    %rax,%rdi
  402c71:	e8 b0 00 00 00       	callq  402d26 <_ZNSt26_Maybe_wrap_member_pointerIZ14run_experimentvEUlRN7barrier35centralized_sense_reversing_barrierEmmRSt6atomicIbEE_E9__do_wrapERKS6_>
  402c76:	48 89 c6             	mov    %rax,%rsi
          std::forward<_Args>(__args)...);
  402c79:	48 8b 45 d8          	mov    -0x28(%rbp),%rax
  402c7d:	4d 89 f1             	mov    %r14,%r9
  402c80:	4d 89 e8             	mov    %r13,%r8
  402c83:	4c 89 e1             	mov    %r12,%rcx
  402c86:	48 89 da             	mov    %rbx,%rdx
  402c89:	48 89 c7             	mov    %rax,%rdi
  402c8c:	e8 f7 01 00 00       	callq  402e88 <_ZNSt12_Bind_simpleIFZ14run_experimentvEUlRN7barrier35centralized_sense_reversing_barrierEmmRSt6atomicIbEE_St17reference_wrapperIS1_EmmS7_IS4_EEEC1IIS8_RKmRmS9_EvEERKS6_DpOT_>
    }
  402c91:	48 8b 45 d8          	mov    -0x28(%rbp),%rax
  402c95:	48 83 c4 30          	add    $0x30,%rsp
  402c99:	5b                   	pop    %rbx
  402c9a:	41 5c                	pop    %r12
  402c9c:	41 5d                	pop    %r13
  402c9e:	41 5e                	pop    %r14
  402ca0:	5d                   	pop    %rbp
  402ca1:	c3                   	retq   

0000000000402ca2 <_ZSt7forwardISt12_Bind_simpleIFZ14run_experimentvEUlRN7barrier35centralized_sense_reversing_barrierEmmRSt6atomicIbEE_St17reference_wrapperIS2_EmmS8_IS5_EEEEOT_RNSt16remove_referenceISD_E4typeE>:
   *
   *  This function is used to implement "perfect forwarding".
   */
  template<typename _Tp>
    constexpr _Tp&&
    forward(typename std::remove_reference<_Tp>::type& __t) noexcept
  402ca2:	55                   	push   %rbp
  402ca3:	48 89 e5             	mov    %rsp,%rbp
  402ca6:	48 89 7d f8          	mov    %rdi,-0x8(%rbp)
    { return static_cast<_Tp&&>(__t); }
  402caa:	48 8b 45 f8          	mov    -0x8(%rbp),%rax
  402cae:	5d                   	pop    %rbp
  402caf:	c3                   	retq   

0000000000402cb0 <_ZNSt6thread15_M_make_routineISt12_Bind_simpleIFZ14run_experimentvEUlRN7barrier35centralized_sense_reversing_barrierEmmRSt6atomicIbEE_St17reference_wrapperIS3_EmmS9_IS6_EEEEESt10shared_ptrINS_5_ImplIT_EEEOSG_>:
    void
    _M_start_thread(__shared_base_type);

    template<typename _Callable>
      shared_ptr<_Impl<_Callable>>
      _M_make_routine(_Callable&& __f)
  402cb0:	55                   	push   %rbp
  402cb1:	48 89 e5             	mov    %rsp,%rbp
  402cb4:	48 83 ec 20          	sub    $0x20,%rsp
  402cb8:	48 89 7d f8          	mov    %rdi,-0x8(%rbp)
  402cbc:	48 89 75 f0          	mov    %rsi,-0x10(%rbp)
  402cc0:	48 89 55 e8          	mov    %rdx,-0x18(%rbp)
      {
	// Create and allocate full data structure, not base.
	return std::make_shared<_Impl<_Callable>>(std::forward<_Callable>(__f));
  402cc4:	48 8b 45 e8          	mov    -0x18(%rbp),%rax
  402cc8:	48 89 c7             	mov    %rax,%rdi
  402ccb:	e8 d2 ff ff ff       	callq  402ca2 <_ZSt7forwardISt12_Bind_simpleIFZ14run_experimentvEUlRN7barrier35centralized_sense_reversing_barrierEmmRSt6atomicIbEE_St17reference_wrapperIS2_EmmS8_IS5_EEEEOT_RNSt16remove_referenceISD_E4typeE>
  402cd0:	48 89 c2             	mov    %rax,%rdx
  402cd3:	48 8b 45 f8          	mov    -0x8(%rbp),%rax
  402cd7:	48 89 d6             	mov    %rdx,%rsi
  402cda:	48 89 c7             	mov    %rax,%rdi
  402cdd:	e8 2b 02 00 00       	callq  402f0d <_ZSt11make_sharedINSt6thread5_ImplISt12_Bind_simpleIFZ14run_experimentvEUlRN7barrier35centralized_sense_reversing_barrierEmmRSt6atomicIbEE_St17reference_wrapperIS4_EmmSA_IS7_EEEEEISE_EESt10shared_ptrIT_EDpOT0_>
      }
  402ce2:	48 8b 45 f8          	mov    -0x8(%rbp),%rax
  402ce6:	c9                   	leaveq 
  402ce7:	c3                   	retq   

0000000000402ce8 <_ZSt4moveIRSt10shared_ptrINSt6thread5_ImplISt12_Bind_simpleIFZ14run_experimentvEUlRN7barrier35centralized_sense_reversing_barrierEmmRSt6atomicIbEE_St17reference_wrapperIS5_EmmSB_IS8_EEEEEEEONSt16remove_referenceIT_E4typeEOSK_>:
   *  @param  __t  A thing of arbitrary type.
   *  @return The parameter cast to an rvalue-reference to allow moving it.
  */
  template<typename _Tp>
    constexpr typename std::remove_reference<_Tp>::type&&
    move(_Tp&& __t) noexcept
  402ce8:	55                   	push   %rbp
  402ce9:	48 89 e5             	mov    %rsp,%rbp
  402cec:	48 89 7d f8          	mov    %rdi,-0x8(%rbp)
    { return static_cast<typename std::remove_reference<_Tp>::type&&>(__t); }
  402cf0:	48 8b 45 f8          	mov    -0x8(%rbp),%rax
  402cf4:	5d                   	pop    %rbp
  402cf5:	c3                   	retq   

0000000000402cf6 <_ZNSt10shared_ptrINSt6thread10_Impl_baseEEC1INS0_5_ImplISt12_Bind_simpleIFZ14run_experimentvEUlRN7barrier35centralized_sense_reversing_barrierEmmRSt6atomicIbEE_St17reference_wrapperIS7_EmmSD_ISA_EEEEEvEEOS_IT_E>:
       *  @param  __r  A %shared_ptr rvalue.
       *  @post   *this contains the old value of @a __r, @a __r is empty.
       */
      template<typename _Tp1, typename = typename
	       std::enable_if<std::is_convertible<_Tp1*, _Tp*>::value>::type>
	shared_ptr(shared_ptr<_Tp1>&& __r) noexcept
  402cf6:	55                   	push   %rbp
  402cf7:	48 89 e5             	mov    %rsp,%rbp
  402cfa:	48 83 ec 10          	sub    $0x10,%rsp
  402cfe:	48 89 7d f8          	mov    %rdi,-0x8(%rbp)
  402d02:	48 89 75 f0          	mov    %rsi,-0x10(%rbp)
	: __shared_ptr<_Tp>(std::move(__r)) { }
  402d06:	48 8b 45 f0          	mov    -0x10(%rbp),%rax
  402d0a:	48 89 c7             	mov    %rax,%rdi
  402d0d:	e8 d6 ff ff ff       	callq  402ce8 <_ZSt4moveIRSt10shared_ptrINSt6thread5_ImplISt12_Bind_simpleIFZ14run_experimentvEUlRN7barrier35centralized_sense_reversing_barrierEmmRSt6atomicIbEE_St17reference_wrapperIS5_EmmSB_IS8_EEEEEEEONSt16remove_referenceIT_E4typeEOSK_>
  402d12:	48 89 c2             	mov    %rax,%rdx
  402d15:	48 8b 45 f8          	mov    -0x8(%rbp),%rax
  402d19:	48 89 d6             	mov    %rdx,%rsi
  402d1c:	48 89 c7             	mov    %rax,%rdi
  402d1f:	e8 5e 02 00 00       	callq  402f82 <_ZNSt12__shared_ptrINSt6thread10_Impl_baseELN9__gnu_cxx12_Lock_policyE2EEC2INS0_5_ImplISt12_Bind_simpleIFZ14run_experimentvEUlRN7barrier35centralized_sense_reversing_barrierEmmRSt6atomicIbEE_St17reference_wrapperIS9_EmmSF_ISC_EEEEEvEEOS_IT_LS3_2EE>
  402d24:	c9                   	leaveq 
  402d25:	c3                   	retq   

0000000000402d26 <_ZNSt26_Maybe_wrap_member_pointerIZ14run_experimentvEUlRN7barrier35centralized_sense_reversing_barrierEmmRSt6atomicIbEE_E9__do_wrapERKS6_>:
    struct _Maybe_wrap_member_pointer
    {
      typedef _Tp type;

      static const _Tp&
      __do_wrap(const _Tp& __x)
  402d26:	55                   	push   %rbp
  402d27:	48 89 e5             	mov    %rsp,%rbp
  402d2a:	48 89 7d f8          	mov    %rdi,-0x8(%rbp)
      { return __x; }
  402d2e:	48 8b 45 f8          	mov    -0x8(%rbp),%rax
  402d32:	5d                   	pop    %rbp
  402d33:	c3                   	retq   

0000000000402d34 <_ZSt7forwardIRKZ14run_experimentvEUlRN7barrier35centralized_sense_reversing_barrierEmmRSt6atomicIbEE_EOT_RNSt16remove_referenceIS9_E4typeE>:
   *
   *  This function is used to implement "perfect forwarding".
   */
  template<typename _Tp>
    constexpr _Tp&&
    forward(typename std::remove_reference<_Tp>::type& __t) noexcept
  402d34:	55                   	push   %rbp
  402d35:	48 89 e5             	mov    %rsp,%rbp
  402d38:	48 89 7d f8          	mov    %rdi,-0x8(%rbp)
    { return static_cast<_Tp&&>(__t); }
  402d3c:	48 8b 45 f8          	mov    -0x8(%rbp),%rax
  402d40:	5d                   	pop    %rbp
  402d41:	c3                   	retq   

0000000000402d42 <_ZNSt10_Head_baseILm0EZ14run_experimentvEUlRN7barrier35centralized_sense_reversing_barrierEmmRSt6atomicIbEE_Lb1EEC2ERKS6_>:
    : public _Head
    {
      constexpr _Head_base()
      : _Head() { }

      constexpr _Head_base(const _Head& __h)
  402d42:	55                   	push   %rbp
  402d43:	48 89 e5             	mov    %rsp,%rbp
  402d46:	48 89 7d f8          	mov    %rdi,-0x8(%rbp)
  402d4a:	48 89 75 f0          	mov    %rsi,-0x10(%rbp)
      : _Head(__h) { }
  402d4e:	5d                   	pop    %rbp
  402d4f:	c3                   	retq   

0000000000402d50 <_ZNSt11_Tuple_implILm0EIZ14run_experimentvEUlRN7barrier35centralized_sense_reversing_barrierEmmRSt6atomicIbEE_St17reference_wrapperIS1_EmmS7_IS4_EEEC2IRKS6_IS8_RKmRmS9_EvEEOT_DpOT0_>:
      : _Inherited(__tail...), _Base(__head) { }

      template<typename _UHead, typename... _UTail, typename = typename
               enable_if<sizeof...(_Tail) == sizeof...(_UTail)>::type> 
        explicit
        constexpr _Tuple_impl(_UHead&& __head, _UTail&&... __tail)
  402d50:	55                   	push   %rbp
  402d51:	48 89 e5             	mov    %rsp,%rbp
  402d54:	41 55                	push   %r13
  402d56:	41 54                	push   %r12
  402d58:	53                   	push   %rbx
  402d59:	48 83 ec 38          	sub    $0x38,%rsp
  402d5d:	48 89 7d d8          	mov    %rdi,-0x28(%rbp)
  402d61:	48 89 75 d0          	mov    %rsi,-0x30(%rbp)
  402d65:	48 89 55 c8          	mov    %rdx,-0x38(%rbp)
  402d69:	48 89 4d c0          	mov    %rcx,-0x40(%rbp)
  402d6d:	4c 89 45 b8          	mov    %r8,-0x48(%rbp)
  402d71:	4c 89 4d b0          	mov    %r9,-0x50(%rbp)
	: _Inherited(std::forward<_UTail>(__tail)...),
  402d75:	48 8b 45 b0          	mov    -0x50(%rbp),%rax
  402d79:	48 89 c7             	mov    %rax,%rdi
  402d7c:	e8 96 2b 00 00       	callq  405917 <_ZSt7forwardISt17reference_wrapperISt6atomicIbEEEOT_RNSt16remove_referenceIS4_E4typeE>
  402d81:	49 89 c5             	mov    %rax,%r13
  402d84:	48 8b 45 b8          	mov    -0x48(%rbp),%rax
  402d88:	48 89 c7             	mov    %rax,%rdi
  402d8b:	e8 79 2b 00 00       	callq  405909 <_ZSt7forwardIRmEOT_RNSt16remove_referenceIS1_E4typeE>
  402d90:	49 89 c4             	mov    %rax,%r12
  402d93:	48 8b 45 c0          	mov    -0x40(%rbp),%rax
  402d97:	48 89 c7             	mov    %rax,%rdi
  402d9a:	e8 5c 2b 00 00       	callq  4058fb <_ZSt7forwardIRKmEOT_RNSt16remove_referenceIS2_E4typeE>
  402d9f:	48 89 c3             	mov    %rax,%rbx
  402da2:	48 8b 45 c8          	mov    -0x38(%rbp),%rax
  402da6:	48 89 c7             	mov    %rax,%rdi
  402da9:	e8 3f 2b 00 00       	callq  4058ed <_ZSt7forwardISt17reference_wrapperIN7barrier35centralized_sense_reversing_barrierEEEOT_RNSt16remove_referenceIS4_E4typeE>
  402dae:	48 89 c6             	mov    %rax,%rsi
	  _Base(std::forward<_UHead>(__head)) { }
  402db1:	48 8b 45 d8          	mov    -0x28(%rbp),%rax
  402db5:	4d 89 e8             	mov    %r13,%r8
  402db8:	4c 89 e1             	mov    %r12,%rcx
  402dbb:	48 89 da             	mov    %rbx,%rdx
  402dbe:	48 89 c7             	mov    %rax,%rdi
  402dc1:	e8 7c 5a 00 00       	callq  408842 <_ZNSt11_Tuple_implILm1EISt17reference_wrapperIN7barrier35centralized_sense_reversing_barrierEEmmS0_ISt6atomicIbEEEEC1IS3_IRKmRmS6_EvEEOT_DpOT0_>
  402dc6:	48 8b 45 d0          	mov    -0x30(%rbp),%rax
  402dca:	48 89 c7             	mov    %rax,%rdi
  402dcd:	e8 62 ff ff ff       	callq  402d34 <_ZSt7forwardIRKZ14run_experimentvEUlRN7barrier35centralized_sense_reversing_barrierEmmRSt6atomicIbEE_EOT_RNSt16remove_referenceIS9_E4typeE>
  402dd2:	48 89 c2             	mov    %rax,%rdx
  402dd5:	48 8b 45 d8          	mov    -0x28(%rbp),%rax
  402dd9:	48 89 d6             	mov    %rdx,%rsi
  402ddc:	48 89 c7             	mov    %rax,%rdi
  402ddf:	e8 5e ff ff ff       	callq  402d42 <_ZNSt10_Head_baseILm0EZ14run_experimentvEUlRN7barrier35centralized_sense_reversing_barrierEmmRSt6atomicIbEE_Lb1EEC2ERKS6_>
  402de4:	48 83 c4 38          	add    $0x38,%rsp
  402de8:	5b                   	pop    %rbx
  402de9:	41 5c                	pop    %r12
  402deb:	41 5d                	pop    %r13
  402ded:	5d                   	pop    %rbp
  402dee:	c3                   	retq   
  402def:	90                   	nop

0000000000402df0 <_ZNSt5tupleIIZ14run_experimentvEUlRN7barrier35centralized_sense_reversing_barrierEmmRSt6atomicIbEE_St17reference_wrapperIS1_EmmS7_IS4_EEEC1IIRKS6_S8_RKmRmS9_EvEEDpOT_>:

      template<typename... _UElements, typename = typename
        enable_if<__and_<is_convertible<_UElements,
					_Elements>...>::value>::type>
	explicit
        constexpr tuple(_UElements&&... __elements)
  402df0:	55                   	push   %rbp
  402df1:	48 89 e5             	mov    %rsp,%rbp
  402df4:	41 56                	push   %r14
  402df6:	41 55                	push   %r13
  402df8:	41 54                	push   %r12
  402dfa:	53                   	push   %rbx
  402dfb:	48 83 ec 30          	sub    $0x30,%rsp
  402dff:	48 89 7d d8          	mov    %rdi,-0x28(%rbp)
  402e03:	48 89 75 d0          	mov    %rsi,-0x30(%rbp)
  402e07:	48 89 55 c8          	mov    %rdx,-0x38(%rbp)
  402e0b:	48 89 4d c0          	mov    %rcx,-0x40(%rbp)
  402e0f:	4c 89 45 b8          	mov    %r8,-0x48(%rbp)
  402e13:	4c 89 4d b0          	mov    %r9,-0x50(%rbp)
	: _Inherited(std::forward<_UElements>(__elements)...) {	}
  402e17:	48 8b 45 b0          	mov    -0x50(%rbp),%rax
  402e1b:	48 89 c7             	mov    %rax,%rdi
  402e1e:	e8 f4 2a 00 00       	callq  405917 <_ZSt7forwardISt17reference_wrapperISt6atomicIbEEEOT_RNSt16remove_referenceIS4_E4typeE>
  402e23:	49 89 c6             	mov    %rax,%r14
  402e26:	48 8b 45 b8          	mov    -0x48(%rbp),%rax
  402e2a:	48 89 c7             	mov    %rax,%rdi
  402e2d:	e8 d7 2a 00 00       	callq  405909 <_ZSt7forwardIRmEOT_RNSt16remove_referenceIS1_E4typeE>
  402e32:	49 89 c5             	mov    %rax,%r13
  402e35:	48 8b 45 c0          	mov    -0x40(%rbp),%rax
  402e39:	48 89 c7             	mov    %rax,%rdi
  402e3c:	e8 ba 2a 00 00       	callq  4058fb <_ZSt7forwardIRKmEOT_RNSt16remove_referenceIS2_E4typeE>
  402e41:	49 89 c4             	mov    %rax,%r12
  402e44:	48 8b 45 c8          	mov    -0x38(%rbp),%rax
  402e48:	48 89 c7             	mov    %rax,%rdi
  402e4b:	e8 9d 2a 00 00       	callq  4058ed <_ZSt7forwardISt17reference_wrapperIN7barrier35centralized_sense_reversing_barrierEEEOT_RNSt16remove_referenceIS4_E4typeE>
  402e50:	48 89 c3             	mov    %rax,%rbx
  402e53:	48 8b 45 d0          	mov    -0x30(%rbp),%rax
  402e57:	48 89 c7             	mov    %rax,%rdi
  402e5a:	e8 d5 fe ff ff       	callq  402d34 <_ZSt7forwardIRKZ14run_experimentvEUlRN7barrier35centralized_sense_reversing_barrierEmmRSt6atomicIbEE_EOT_RNSt16remove_referenceIS9_E4typeE>
  402e5f:	48 89 c6             	mov    %rax,%rsi
  402e62:	48 8b 45 d8          	mov    -0x28(%rbp),%rax
  402e66:	4d 89 f1             	mov    %r14,%r9
  402e69:	4d 89 e8             	mov    %r13,%r8
  402e6c:	4c 89 e1             	mov    %r12,%rcx
  402e6f:	48 89 da             	mov    %rbx,%rdx
  402e72:	48 89 c7             	mov    %rax,%rdi
  402e75:	e8 d6 fe ff ff       	callq  402d50 <_ZNSt11_Tuple_implILm0EIZ14run_experimentvEUlRN7barrier35centralized_sense_reversing_barrierEmmRSt6atomicIbEE_St17reference_wrapperIS1_EmmS7_IS4_EEEC2IRKS6_IS8_RKmRmS9_EvEEOT_DpOT0_>
  402e7a:	48 83 c4 30          	add    $0x30,%rsp
  402e7e:	5b                   	pop    %rbx
  402e7f:	41 5c                	pop    %r12
  402e81:	41 5d                	pop    %r13
  402e83:	41 5e                	pop    %r14
  402e85:	5d                   	pop    %rbp
  402e86:	c3                   	retq   
  402e87:	90                   	nop

0000000000402e88 <_ZNSt12_Bind_simpleIFZ14run_experimentvEUlRN7barrier35centralized_sense_reversing_barrierEmmRSt6atomicIbEE_St17reference_wrapperIS1_EmmS7_IS4_EEEC1IIS8_RKmRmS9_EvEERKS6_DpOT_>:
      typedef typename result_of<_Callable(_Args...)>::type result_type;

      template<typename... _Args2, typename = typename
               enable_if< sizeof...(_Args) == sizeof...(_Args2)>::type>
        explicit
        _Bind_simple(const _Callable& __callable, _Args2&&... __args)
  402e88:	55                   	push   %rbp
  402e89:	48 89 e5             	mov    %rsp,%rbp
  402e8c:	41 55                	push   %r13
  402e8e:	41 54                	push   %r12
  402e90:	53                   	push   %rbx
  402e91:	48 83 ec 38          	sub    $0x38,%rsp
  402e95:	48 89 7d d8          	mov    %rdi,-0x28(%rbp)
  402e99:	48 89 75 d0          	mov    %rsi,-0x30(%rbp)
  402e9d:	48 89 55 c8          	mov    %rdx,-0x38(%rbp)
  402ea1:	48 89 4d c0          	mov    %rcx,-0x40(%rbp)
  402ea5:	4c 89 45 b8          	mov    %r8,-0x48(%rbp)
  402ea9:	4c 89 4d b0          	mov    %r9,-0x50(%rbp)
        : _M_bound(__callable, std::forward<_Args2>(__args)...)
  402ead:	48 8b 45 b0          	mov    -0x50(%rbp),%rax
  402eb1:	48 89 c7             	mov    %rax,%rdi
  402eb4:	e8 5e 2a 00 00       	callq  405917 <_ZSt7forwardISt17reference_wrapperISt6atomicIbEEEOT_RNSt16remove_referenceIS4_E4typeE>
  402eb9:	49 89 c5             	mov    %rax,%r13
  402ebc:	48 8b 45 b8          	mov    -0x48(%rbp),%rax
  402ec0:	48 89 c7             	mov    %rax,%rdi
  402ec3:	e8 41 2a 00 00       	callq  405909 <_ZSt7forwardIRmEOT_RNSt16remove_referenceIS1_E4typeE>
  402ec8:	49 89 c4             	mov    %rax,%r12
  402ecb:	48 8b 45 c0          	mov    -0x40(%rbp),%rax
  402ecf:	48 89 c7             	mov    %rax,%rdi
  402ed2:	e8 24 2a 00 00       	callq  4058fb <_ZSt7forwardIRKmEOT_RNSt16remove_referenceIS2_E4typeE>
  402ed7:	48 89 c3             	mov    %rax,%rbx
  402eda:	48 8b 45 c8          	mov    -0x38(%rbp),%rax
  402ede:	48 89 c7             	mov    %rax,%rdi
  402ee1:	e8 07 2a 00 00       	callq  4058ed <_ZSt7forwardISt17reference_wrapperIN7barrier35centralized_sense_reversing_barrierEEEOT_RNSt16remove_referenceIS4_E4typeE>
  402ee6:	48 89 c2             	mov    %rax,%rdx
  402ee9:	48 8b 45 d8          	mov    -0x28(%rbp),%rax
  402eed:	48 8b 75 d0          	mov    -0x30(%rbp),%rsi
  402ef1:	4d 89 e9             	mov    %r13,%r9
  402ef4:	4d 89 e0             	mov    %r12,%r8
  402ef7:	48 89 d9             	mov    %rbx,%rcx
  402efa:	48 89 c7             	mov    %rax,%rdi
  402efd:	e8 ee fe ff ff       	callq  402df0 <_ZNSt5tupleIIZ14run_experimentvEUlRN7barrier35centralized_sense_reversing_barrierEmmRSt6atomicIbEE_St17reference_wrapperIS1_EmmS7_IS4_EEEC1IIRKS6_S8_RKmRmS9_EvEEDpOT_>
        { }
  402f02:	48 83 c4 38          	add    $0x38,%rsp
  402f06:	5b                   	pop    %rbx
  402f07:	41 5c                	pop    %r12
  402f09:	41 5d                	pop    %r13
  402f0b:	5d                   	pop    %rbp
  402f0c:	c3                   	retq   

0000000000402f0d <_ZSt11make_sharedINSt6thread5_ImplISt12_Bind_simpleIFZ14run_experimentvEUlRN7barrier35centralized_sense_reversing_barrierEmmRSt6atomicIbEE_St17reference_wrapperIS4_EmmSA_IS7_EEEEEISE_EESt10shared_ptrIT_EDpOT0_>:
   *  @throw  std::bad_alloc, or an exception thrown from the
   *          constructor of @a _Tp.
   */
  template<typename _Tp, typename... _Args>
    inline shared_ptr<_Tp>
    make_shared(_Args&&... __args)
  402f0d:	55                   	push   %rbp
  402f0e:	48 89 e5             	mov    %rsp,%rbp
  402f11:	53                   	push   %rbx
  402f12:	48 83 ec 28          	sub    $0x28,%rsp
  402f16:	48 89 7d d8          	mov    %rdi,-0x28(%rbp)
  402f1a:	48 89 75 d0          	mov    %rsi,-0x30(%rbp)
    {
      typedef typename std::remove_const<_Tp>::type _Tp_nc;
      return std::allocate_shared<_Tp>(std::allocator<_Tp_nc>(),
				       std::forward<_Args>(__args)...);
  402f1e:	48 8b 45 d0          	mov    -0x30(%rbp),%rax
  402f22:	48 89 c7             	mov    %rax,%rdi
  402f25:	e8 78 fd ff ff       	callq  402ca2 <_ZSt7forwardISt12_Bind_simpleIFZ14run_experimentvEUlRN7barrier35centralized_sense_reversing_barrierEmmRSt6atomicIbEE_St17reference_wrapperIS2_EmmS8_IS5_EEEEOT_RNSt16remove_referenceISD_E4typeE>
  402f2a:	48 89 c3             	mov    %rax,%rbx
  402f2d:	48 8d 45 ef          	lea    -0x11(%rbp),%rax
  402f31:	48 89 c7             	mov    %rax,%rdi
  402f34:	e8 9f 00 00 00       	callq  402fd8 <_ZNSaINSt6thread5_ImplISt12_Bind_simpleIFZ14run_experimentvEUlRN7barrier35centralized_sense_reversing_barrierEmmRSt6atomicIbEE_St17reference_wrapperIS3_EmmS9_IS6_EEEEEEC1Ev>
  402f39:	48 8b 45 d8          	mov    -0x28(%rbp),%rax
  402f3d:	48 8d 4d ef          	lea    -0x11(%rbp),%rcx
  402f41:	48 89 da             	mov    %rbx,%rdx
  402f44:	48 89 ce             	mov    %rcx,%rsi
  402f47:	48 89 c7             	mov    %rax,%rdi
  402f4a:	e8 bd 00 00 00       	callq  40300c <_ZSt15allocate_sharedINSt6thread5_ImplISt12_Bind_simpleIFZ14run_experimentvEUlRN7barrier35centralized_sense_reversing_barrierEmmRSt6atomicIbEE_St17reference_wrapperIS4_EmmSA_IS7_EEEEESaISF_EISE_EESt10shared_ptrIT_ERKT0_DpOT1_>
  402f4f:	48 8d 45 ef          	lea    -0x11(%rbp),%rax
  402f53:	48 89 c7             	mov    %rax,%rdi
  402f56:	e8 97 00 00 00       	callq  402ff2 <_ZNSaINSt6thread5_ImplISt12_Bind_simpleIFZ14run_experimentvEUlRN7barrier35centralized_sense_reversing_barrierEmmRSt6atomicIbEE_St17reference_wrapperIS3_EmmS9_IS6_EEEEEED1Ev>
  402f5b:	eb 1a                	jmp    402f77 <_ZSt11make_sharedINSt6thread5_ImplISt12_Bind_simpleIFZ14run_experimentvEUlRN7barrier35centralized_sense_reversing_barrierEmmRSt6atomicIbEE_St17reference_wrapperIS4_EmmSA_IS7_EEEEEISE_EESt10shared_ptrIT_EDpOT0_+0x6a>
  402f5d:	48 89 c3             	mov    %rax,%rbx
  402f60:	48 8d 45 ef          	lea    -0x11(%rbp),%rax
  402f64:	48 89 c7             	mov    %rax,%rdi
  402f67:	e8 86 00 00 00       	callq  402ff2 <_ZNSaINSt6thread5_ImplISt12_Bind_simpleIFZ14run_experimentvEUlRN7barrier35centralized_sense_reversing_barrierEmmRSt6atomicIbEE_St17reference_wrapperIS3_EmmS9_IS6_EEEEEED1Ev>
  402f6c:	48 89 d8             	mov    %rbx,%rax
  402f6f:	48 89 c7             	mov    %rax,%rdi
  402f72:	e8 a9 e9 ff ff       	callq  401920 <_Unwind_Resume@plt>
    }
  402f77:	48 8b 45 d8          	mov    -0x28(%rbp),%rax
  402f7b:	48 83 c4 28          	add    $0x28,%rsp
  402f7f:	5b                   	pop    %rbx
  402f80:	5d                   	pop    %rbp
  402f81:	c3                   	retq   

0000000000402f82 <_ZNSt12__shared_ptrINSt6thread10_Impl_baseELN9__gnu_cxx12_Lock_policyE2EEC2INS0_5_ImplISt12_Bind_simpleIFZ14run_experimentvEUlRN7barrier35centralized_sense_reversing_barrierEmmRSt6atomicIbEE_St17reference_wrapperIS9_EmmSF_ISC_EEEEEvEEOS_IT_LS3_2EE>:
	__r._M_ptr = 0;
      }

      template<typename _Tp1, typename = typename
	       std::enable_if<std::is_convertible<_Tp1*, _Tp*>::value>::type>
	__shared_ptr(__shared_ptr<_Tp1, _Lp>&& __r) noexcept
  402f82:	55                   	push   %rbp
  402f83:	48 89 e5             	mov    %rsp,%rbp
  402f86:	48 83 ec 10          	sub    $0x10,%rsp
  402f8a:	48 89 7d f8          	mov    %rdi,-0x8(%rbp)
  402f8e:	48 89 75 f0          	mov    %rsi,-0x10(%rbp)
	: _M_ptr(__r._M_ptr), _M_refcount()
  402f92:	48 8b 45 f0          	mov    -0x10(%rbp),%rax
  402f96:	48 8b 10             	mov    (%rax),%rdx
  402f99:	48 8b 45 f8          	mov    -0x8(%rbp),%rax
  402f9d:	48 89 10             	mov    %rdx,(%rax)
  402fa0:	48 8b 45 f8          	mov    -0x8(%rbp),%rax
  402fa4:	48 83 c0 08          	add    $0x8,%rax
  402fa8:	48 89 c7             	mov    %rax,%rdi
  402fab:	e8 6a 4d 00 00       	callq  407d1a <_ZNSt14__shared_countILN9__gnu_cxx12_Lock_policyE2EEC1Ev>
	{
	  _M_refcount._M_swap(__r._M_refcount);
  402fb0:	48 8b 45 f0          	mov    -0x10(%rbp),%rax
  402fb4:	48 8d 50 08          	lea    0x8(%rax),%rdx
  402fb8:	48 8b 45 f8          	mov    -0x8(%rbp),%rax
  402fbc:	48 83 c0 08          	add    $0x8,%rax
  402fc0:	48 89 d6             	mov    %rdx,%rsi
  402fc3:	48 89 c7             	mov    %rax,%rdi
  402fc6:	e8 57 5d 00 00       	callq  408d22 <_ZNSt14__shared_countILN9__gnu_cxx12_Lock_policyE2EE7_M_swapERS2_>
	  __r._M_ptr = 0;
  402fcb:	48 8b 45 f0          	mov    -0x10(%rbp),%rax
  402fcf:	48 c7 00 00 00 00 00 	movq   $0x0,(%rax)
	}
  402fd6:	c9                   	leaveq 
  402fd7:	c3                   	retq   

0000000000402fd8 <_ZNSaINSt6thread5_ImplISt12_Bind_simpleIFZ14run_experimentvEUlRN7barrier35centralized_sense_reversing_barrierEmmRSt6atomicIbEE_St17reference_wrapperIS3_EmmS9_IS6_EEEEEEC1Ev>:
      // _GLIBCXX_RESOLVE_LIB_DEFECTS
      // 2103. std::allocator propagate_on_container_move_assignment
      typedef true_type propagate_on_container_move_assignment;
#endif

      allocator() throw() { }
  402fd8:	55                   	push   %rbp
  402fd9:	48 89 e5             	mov    %rsp,%rbp
  402fdc:	48 83 ec 10          	sub    $0x10,%rsp
  402fe0:	48 89 7d f8          	mov    %rdi,-0x8(%rbp)
  402fe4:	48 8b 45 f8          	mov    -0x8(%rbp),%rax
  402fe8:	48 89 c7             	mov    %rax,%rdi
  402feb:	e8 62 00 00 00       	callq  403052 <_ZN9__gnu_cxx13new_allocatorINSt6thread5_ImplISt12_Bind_simpleIFZ14run_experimentvEUlRN7barrier35centralized_sense_reversing_barrierEmmRSt6atomicIbEE_St17reference_wrapperIS5_EmmSB_IS8_EEEEEEC2Ev>
  402ff0:	c9                   	leaveq 
  402ff1:	c3                   	retq   

0000000000402ff2 <_ZNSaINSt6thread5_ImplISt12_Bind_simpleIFZ14run_experimentvEUlRN7barrier35centralized_sense_reversing_barrierEmmRSt6atomicIbEE_St17reference_wrapperIS3_EmmS9_IS6_EEEEEED1Ev>:
      : __allocator_base<_Tp>(__a) { }

      template<typename _Tp1>
        allocator(const allocator<_Tp1>&) throw() { }

      ~allocator() throw() { }
  402ff2:	55                   	push   %rbp
  402ff3:	48 89 e5             	mov    %rsp,%rbp
  402ff6:	48 83 ec 10          	sub    $0x10,%rsp
  402ffa:	48 89 7d f8          	mov    %rdi,-0x8(%rbp)
  402ffe:	48 8b 45 f8          	mov    -0x8(%rbp),%rax
  403002:	48 89 c7             	mov    %rax,%rdi
  403005:	e8 52 00 00 00       	callq  40305c <_ZN9__gnu_cxx13new_allocatorINSt6thread5_ImplISt12_Bind_simpleIFZ14run_experimentvEUlRN7barrier35centralized_sense_reversing_barrierEmmRSt6atomicIbEE_St17reference_wrapperIS5_EmmSB_IS8_EEEEEED2Ev>
  40300a:	c9                   	leaveq 
  40300b:	c3                   	retq   

000000000040300c <_ZSt15allocate_sharedINSt6thread5_ImplISt12_Bind_simpleIFZ14run_experimentvEUlRN7barrier35centralized_sense_reversing_barrierEmmRSt6atomicIbEE_St17reference_wrapperIS4_EmmSA_IS7_EEEEESaISF_EISE_EESt10shared_ptrIT_ERKT0_DpOT1_>:
   *  A copy of @a __a will be used to allocate memory for the shared_ptr
   *  and the new object.
   */
  template<typename _Tp, typename _Alloc, typename... _Args>
    inline shared_ptr<_Tp>
    allocate_shared(const _Alloc& __a, _Args&&... __args)
  40300c:	55                   	push   %rbp
  40300d:	48 89 e5             	mov    %rsp,%rbp
  403010:	53                   	push   %rbx
  403011:	48 83 ec 38          	sub    $0x38,%rsp
  403015:	48 89 7d d8          	mov    %rdi,-0x28(%rbp)
  403019:	48 89 75 d0          	mov    %rsi,-0x30(%rbp)
  40301d:	48 89 55 c8          	mov    %rdx,-0x38(%rbp)
    {
      return shared_ptr<_Tp>(_Sp_make_shared_tag(), __a,
			     std::forward<_Args>(__args)...);
  403021:	48 8b 45 c8          	mov    -0x38(%rbp),%rax
  403025:	48 89 c7             	mov    %rax,%rdi
  403028:	e8 75 fc ff ff       	callq  402ca2 <_ZSt7forwardISt12_Bind_simpleIFZ14run_experimentvEUlRN7barrier35centralized_sense_reversing_barrierEmmRSt6atomicIbEE_St17reference_wrapperIS2_EmmS8_IS5_EEEEOT_RNSt16remove_referenceISD_E4typeE>
  40302d:	48 89 c2             	mov    %rax,%rdx
  403030:	48 8b 4d d0          	mov    -0x30(%rbp),%rcx
  403034:	48 8b 45 d8          	mov    -0x28(%rbp),%rax
  403038:	88 1c 24             	mov    %bl,(%rsp)
  40303b:	48 89 ce             	mov    %rcx,%rsi
  40303e:	48 89 c7             	mov    %rax,%rdi
  403041:	e8 20 00 00 00       	callq  403066 <_ZNSt10shared_ptrINSt6thread5_ImplISt12_Bind_simpleIFZ14run_experimentvEUlRN7barrier35centralized_sense_reversing_barrierEmmRSt6atomicIbEE_St17reference_wrapperIS4_EmmSA_IS7_EEEEEEC1ISaISF_EISE_EEESt19_Sp_make_shared_tagRKT_DpOT0_>
    }
  403046:	48 8b 45 d8          	mov    -0x28(%rbp),%rax
  40304a:	48 83 c4 38          	add    $0x38,%rsp
  40304e:	5b                   	pop    %rbx
  40304f:	5d                   	pop    %rbp
  403050:	c3                   	retq   
  403051:	90                   	nop

0000000000403052 <_ZN9__gnu_cxx13new_allocatorINSt6thread5_ImplISt12_Bind_simpleIFZ14run_experimentvEUlRN7barrier35centralized_sense_reversing_barrierEmmRSt6atomicIbEE_St17reference_wrapperIS5_EmmSB_IS8_EEEEEEC2Ev>:
      // _GLIBCXX_RESOLVE_LIB_DEFECTS
      // 2103. propagate_on_container_move_assignment
      typedef std::true_type propagate_on_container_move_assignment;
#endif

      new_allocator() _GLIBCXX_USE_NOEXCEPT { }
  403052:	55                   	push   %rbp
  403053:	48 89 e5             	mov    %rsp,%rbp
  403056:	48 89 7d f8          	mov    %rdi,-0x8(%rbp)
  40305a:	5d                   	pop    %rbp
  40305b:	c3                   	retq   

000000000040305c <_ZN9__gnu_cxx13new_allocatorINSt6thread5_ImplISt12_Bind_simpleIFZ14run_experimentvEUlRN7barrier35centralized_sense_reversing_barrierEmmRSt6atomicIbEE_St17reference_wrapperIS5_EmmSB_IS8_EEEEEED2Ev>:
      new_allocator(const new_allocator&) _GLIBCXX_USE_NOEXCEPT { }

      template<typename _Tp1>
        new_allocator(const new_allocator<_Tp1>&) _GLIBCXX_USE_NOEXCEPT { }

      ~new_allocator() _GLIBCXX_USE_NOEXCEPT { }
  40305c:	55                   	push   %rbp
  40305d:	48 89 e5             	mov    %rsp,%rbp
  403060:	48 89 7d f8          	mov    %rdi,-0x8(%rbp)
  403064:	5d                   	pop    %rbp
  403065:	c3                   	retq   

0000000000403066 <_ZNSt10shared_ptrINSt6thread5_ImplISt12_Bind_simpleIFZ14run_experimentvEUlRN7barrier35centralized_sense_reversing_barrierEmmRSt6atomicIbEE_St17reference_wrapperIS4_EmmSA_IS7_EEEEEEC1ISaISF_EISE_EEESt19_Sp_make_shared_tagRKT_DpOT0_>:
	}

    private:
      // This constructor is non-standard, it is used by allocate_shared.
      template<typename _Alloc, typename... _Args>
	shared_ptr(_Sp_make_shared_tag __tag, const _Alloc& __a,
  403066:	55                   	push   %rbp
  403067:	48 89 e5             	mov    %rsp,%rbp
  40306a:	53                   	push   %rbx
  40306b:	48 83 ec 28          	sub    $0x28,%rsp
  40306f:	48 89 7d e8          	mov    %rdi,-0x18(%rbp)
  403073:	48 89 75 e0          	mov    %rsi,-0x20(%rbp)
  403077:	48 89 55 d8          	mov    %rdx,-0x28(%rbp)
		   _Args&&... __args)
	: __shared_ptr<_Tp>(__tag, __a, std::forward<_Args>(__args)...)
  40307b:	48 8b 45 d8          	mov    -0x28(%rbp),%rax
  40307f:	48 89 c7             	mov    %rax,%rdi
  403082:	e8 1b fc ff ff       	callq  402ca2 <_ZSt7forwardISt12_Bind_simpleIFZ14run_experimentvEUlRN7barrier35centralized_sense_reversing_barrierEmmRSt6atomicIbEE_St17reference_wrapperIS2_EmmS8_IS5_EEEEOT_RNSt16remove_referenceISD_E4typeE>
  403087:	48 89 c2             	mov    %rax,%rdx
  40308a:	48 8b 45 e8          	mov    -0x18(%rbp),%rax
  40308e:	48 8b 4d e0          	mov    -0x20(%rbp),%rcx
  403092:	88 1c 24             	mov    %bl,(%rsp)
  403095:	48 89 ce             	mov    %rcx,%rsi
  403098:	48 89 c7             	mov    %rax,%rdi
  40309b:	e8 08 00 00 00       	callq  4030a8 <_ZNSt12__shared_ptrINSt6thread5_ImplISt12_Bind_simpleIFZ14run_experimentvEUlRN7barrier35centralized_sense_reversing_barrierEmmRSt6atomicIbEE_St17reference_wrapperIS4_EmmSA_IS7_EEEEELN9__gnu_cxx12_Lock_policyE2EEC2ISaISF_EISE_EEESt19_Sp_make_shared_tagRKT_DpOT0_>
	{ }
  4030a0:	48 83 c4 28          	add    $0x28,%rsp
  4030a4:	5b                   	pop    %rbx
  4030a5:	5d                   	pop    %rbp
  4030a6:	c3                   	retq   
  4030a7:	90                   	nop

00000000004030a8 <_ZNSt12__shared_ptrINSt6thread5_ImplISt12_Bind_simpleIFZ14run_experimentvEUlRN7barrier35centralized_sense_reversing_barrierEmmRSt6atomicIbEE_St17reference_wrapperIS4_EmmSA_IS7_EEEEELN9__gnu_cxx12_Lock_policyE2EEC2ISaISF_EISE_EEESt19_Sp_make_shared_tagRKT_DpOT0_>:

#ifdef __GXX_RTTI
    protected:
      // This constructor is non-standard, it is used by allocate_shared.
      template<typename _Alloc, typename... _Args>
	__shared_ptr(_Sp_make_shared_tag __tag, const _Alloc& __a,
  4030a8:	55                   	push   %rbp
  4030a9:	48 89 e5             	mov    %rsp,%rbp
  4030ac:	53                   	push   %rbx
  4030ad:	48 83 ec 38          	sub    $0x38,%rsp
  4030b1:	48 89 7d d8          	mov    %rdi,-0x28(%rbp)
  4030b5:	48 89 75 d0          	mov    %rsi,-0x30(%rbp)
  4030b9:	48 89 55 c8          	mov    %rdx,-0x38(%rbp)
		     _Args&&... __args)
	: _M_ptr(), _M_refcount(__tag, (_Tp*)0, __a,
				std::forward<_Args>(__args)...)
  4030bd:	48 8b 45 d8          	mov    -0x28(%rbp),%rax
  4030c1:	48 c7 00 00 00 00 00 	movq   $0x0,(%rax)
  4030c8:	48 8b 45 c8          	mov    -0x38(%rbp),%rax
  4030cc:	48 89 c7             	mov    %rax,%rdi
  4030cf:	e8 ce fb ff ff       	callq  402ca2 <_ZSt7forwardISt12_Bind_simpleIFZ14run_experimentvEUlRN7barrier35centralized_sense_reversing_barrierEmmRSt6atomicIbEE_St17reference_wrapperIS2_EmmS8_IS5_EEEEOT_RNSt16remove_referenceISD_E4typeE>
  4030d4:	48 89 c2             	mov    %rax,%rdx
  4030d7:	48 8b 45 d8          	mov    -0x28(%rbp),%rax
  4030db:	48 8d 78 08          	lea    0x8(%rax),%rdi
  4030df:	48 8b 45 d0          	mov    -0x30(%rbp),%rax
  4030e3:	88 1c 24             	mov    %bl,(%rsp)
  4030e6:	48 89 d1             	mov    %rdx,%rcx
  4030e9:	48 89 c2             	mov    %rax,%rdx
  4030ec:	be 00 00 00 00       	mov    $0x0,%esi
  4030f1:	e8 6e 00 00 00       	callq  403164 <_ZNSt14__shared_countILN9__gnu_cxx12_Lock_policyE2EEC1INSt6thread5_ImplISt12_Bind_simpleIFZ14run_experimentvEUlRN7barrier35centralized_sense_reversing_barrierEmmRSt6atomicIbEE_St17reference_wrapperIS8_EmmSE_ISB_EEEEESaISJ_EISI_EEESt19_Sp_make_shared_tagPT_RKT0_DpOT1_>
	{
	  // _M_ptr needs to point to the newly constructed object.
	  // This relies on _Sp_counted_ptr_inplace::_M_get_deleter.
	  void* __p = _M_refcount._M_get_deleter(typeid(__tag));
  4030f6:	48 8b 45 d8          	mov    -0x28(%rbp),%rax
  4030fa:	48 83 c0 08          	add    $0x8,%rax
  4030fe:	be d0 c3 40 00       	mov    $0x40c3d0,%esi
  403103:	48 89 c7             	mov    %rax,%rdi
  403106:	e8 59 72 00 00       	callq  40a364 <_ZNKSt14__shared_countILN9__gnu_cxx12_Lock_policyE2EE14_M_get_deleterERKSt9type_info>
  40310b:	48 89 45 e8          	mov    %rax,-0x18(%rbp)
	  _M_ptr = static_cast<_Tp*>(__p);
  40310f:	48 8b 45 d8          	mov    -0x28(%rbp),%rax
  403113:	48 8b 55 e8          	mov    -0x18(%rbp),%rdx
  403117:	48 89 10             	mov    %rdx,(%rax)
	  __enable_shared_from_this_helper(_M_refcount, _M_ptr, _M_ptr);
  40311a:	48 8b 45 d8          	mov    -0x28(%rbp),%rax
  40311e:	48 8b 10             	mov    (%rax),%rdx
  403121:	48 8b 45 d8          	mov    -0x28(%rbp),%rax
  403125:	48 8b 00             	mov    (%rax),%rax
  403128:	48 8b 4d d8          	mov    -0x28(%rbp),%rcx
  40312c:	48 83 c1 08          	add    $0x8,%rcx
  403130:	48 89 c6             	mov    %rax,%rsi
  403133:	48 89 cf             	mov    %rcx,%rdi
  403136:	b8 00 00 00 00       	mov    $0x0,%eax
  40313b:	e8 6d 72 00 00       	callq  40a3ad <_ZSt32__enable_shared_from_this_helperILN9__gnu_cxx12_Lock_policyE2EEvRKSt14__shared_countIXT_EEz>
	}
  403140:	48 83 c4 38          	add    $0x38,%rsp
  403144:	5b                   	pop    %rbx
  403145:	5d                   	pop    %rbp
  403146:	c3                   	retq   

0000000000403147 <_ZSt4moveIRKSaINSt6thread5_ImplISt12_Bind_simpleIFZ14run_experimentvEUlRN7barrier35centralized_sense_reversing_barrierEmmRSt6atomicIbEE_St17reference_wrapperIS4_EmmSA_IS7_EEEEEEEONSt16remove_referenceIT_E4typeEOSK_>:
   *  @param  __t  A thing of arbitrary type.
   *  @return The parameter cast to an rvalue-reference to allow moving it.
  */
  template<typename _Tp>
    constexpr typename std::remove_reference<_Tp>::type&&
    move(_Tp&& __t) noexcept
  403147:	55                   	push   %rbp
  403148:	48 89 e5             	mov    %rsp,%rbp
  40314b:	48 89 7d f8          	mov    %rdi,-0x8(%rbp)
    { return static_cast<typename std::remove_reference<_Tp>::type&&>(__t); }
  40314f:	48 8b 45 f8          	mov    -0x8(%rbp),%rax
  403153:	5d                   	pop    %rbp
  403154:	c3                   	retq   

0000000000403155 <_ZSt7forwardIKSaINSt6thread5_ImplISt12_Bind_simpleIFZ14run_experimentvEUlRN7barrier35centralized_sense_reversing_barrierEmmRSt6atomicIbEE_St17reference_wrapperIS4_EmmSA_IS7_EEEEEEEOT_RNSt16remove_referenceISI_E4typeE>:
   *
   *  This function is used to implement "perfect forwarding".
   */
  template<typename _Tp>
    constexpr _Tp&&
    forward(typename std::remove_reference<_Tp>::type& __t) noexcept
  403155:	55                   	push   %rbp
  403156:	48 89 e5             	mov    %rsp,%rbp
  403159:	48 89 7d f8          	mov    %rdi,-0x8(%rbp)
    { return static_cast<_Tp&&>(__t); }
  40315d:	48 8b 45 f8          	mov    -0x8(%rbp),%rax
  403161:	5d                   	pop    %rbp
  403162:	c3                   	retq   
  403163:	90                   	nop

0000000000403164 <_ZNSt14__shared_countILN9__gnu_cxx12_Lock_policyE2EEC1INSt6thread5_ImplISt12_Bind_simpleIFZ14run_experimentvEUlRN7barrier35centralized_sense_reversing_barrierEmmRSt6atomicIbEE_St17reference_wrapperIS8_EmmSE_ISB_EEEEESaISJ_EISI_EEESt19_Sp_make_shared_tagPT_RKT0_DpOT1_>:
	      __throw_exception_again;
	    }
	}

      template<typename _Tp, typename _Alloc, typename... _Args>
	__shared_count(_Sp_make_shared_tag, _Tp*, const _Alloc& __a,
  403164:	55                   	push   %rbp
  403165:	48 89 e5             	mov    %rsp,%rbp
  403168:	53                   	push   %rbx
  403169:	48 83 ec 38          	sub    $0x38,%rsp
  40316d:	48 89 7d d8          	mov    %rdi,-0x28(%rbp)
  403171:	48 89 75 d0          	mov    %rsi,-0x30(%rbp)
  403175:	48 89 55 c8          	mov    %rdx,-0x38(%rbp)
  403179:	48 89 4d c0          	mov    %rcx,-0x40(%rbp)
		       _Args&&... __args)
	: _M_pi(0)
  40317d:	48 8b 45 d8          	mov    -0x28(%rbp),%rax
  403181:	48 c7 00 00 00 00 00 	movq   $0x0,(%rax)
	{
	  typedef _Sp_counted_ptr_inplace<_Tp, _Alloc, _Lp> _Sp_cp_type;
	  typedef typename allocator_traits<_Alloc>::template
	    rebind_traits<_Sp_cp_type> _Alloc_traits;
	  typename _Alloc_traits::allocator_type __a2(__a);
  403188:	48 8b 55 c8          	mov    -0x38(%rbp),%rdx
  40318c:	48 8d 45 e7          	lea    -0x19(%rbp),%rax
  403190:	48 89 d6             	mov    %rdx,%rsi
  403193:	48 89 c7             	mov    %rax,%rdi
  403196:	e8 af 00 00 00       	callq  40324a <_ZNSaISt23_Sp_counted_ptr_inplaceINSt6thread5_ImplISt12_Bind_simpleIFZ14run_experimentvEUlRN7barrier35centralized_sense_reversing_barrierEmmRSt6atomicIbEE_St17reference_wrapperIS4_EmmSA_IS7_EEEEESaISF_ELN9__gnu_cxx12_Lock_policyE2EEEC1ISF_EERKSaIT_E>
	  _Sp_cp_type* __mem = _Alloc_traits::allocate(__a2, 1);
  40319b:	48 8d 45 e7          	lea    -0x19(%rbp),%rax
  40319f:	be 01 00 00 00       	mov    $0x1,%esi
  4031a4:	48 89 c7             	mov    %rax,%rdi
  4031a7:	e8 d6 00 00 00       	callq  403282 <_ZNSt16allocator_traitsISaISt23_Sp_counted_ptr_inplaceINSt6thread5_ImplISt12_Bind_simpleIFZ14run_experimentvEUlRN7barrier35centralized_sense_reversing_barrierEmmRSt6atomicIbEE_St17reference_wrapperIS5_EmmSB_IS8_EEEEESaISG_ELN9__gnu_cxx12_Lock_policyE2EEEE8allocateERSL_m>
  4031ac:	48 89 45 e8          	mov    %rax,-0x18(%rbp)
	  __try
	    {
	      _Alloc_traits::construct(__a2, __mem, std::move(__a),
		    std::forward<_Args>(__args)...);
  4031b0:	48 8b 45 c0          	mov    -0x40(%rbp),%rax
  4031b4:	48 89 c7             	mov    %rax,%rdi
  4031b7:	e8 e6 fa ff ff       	callq  402ca2 <_ZSt7forwardISt12_Bind_simpleIFZ14run_experimentvEUlRN7barrier35centralized_sense_reversing_barrierEmmRSt6atomicIbEE_St17reference_wrapperIS2_EmmS8_IS5_EEEEOT_RNSt16remove_referenceISD_E4typeE>
  4031bc:	48 89 c3             	mov    %rax,%rbx
	    rebind_traits<_Sp_cp_type> _Alloc_traits;
	  typename _Alloc_traits::allocator_type __a2(__a);
	  _Sp_cp_type* __mem = _Alloc_traits::allocate(__a2, 1);
	  __try
	    {
	      _Alloc_traits::construct(__a2, __mem, std::move(__a),
  4031bf:	48 8b 45 c8          	mov    -0x38(%rbp),%rax
  4031c3:	48 89 c7             	mov    %rax,%rdi
  4031c6:	e8 7c ff ff ff       	callq  403147 <_ZSt4moveIRKSaINSt6thread5_ImplISt12_Bind_simpleIFZ14run_experimentvEUlRN7barrier35centralized_sense_reversing_barrierEmmRSt6atomicIbEE_St17reference_wrapperIS4_EmmSA_IS7_EEEEEEEONSt16remove_referenceIT_E4typeEOSK_>
  4031cb:	48 89 c2             	mov    %rax,%rdx
  4031ce:	48 8b 75 e8          	mov    -0x18(%rbp),%rsi
  4031d2:	48 8d 45 e7          	lea    -0x19(%rbp),%rax
  4031d6:	48 89 d9             	mov    %rbx,%rcx
  4031d9:	48 89 c7             	mov    %rax,%rdi
  4031dc:	e8 cb 00 00 00       	callq  4032ac <_ZNSt16allocator_traitsISaISt23_Sp_counted_ptr_inplaceINSt6thread5_ImplISt12_Bind_simpleIFZ14run_experimentvEUlRN7barrier35centralized_sense_reversing_barrierEmmRSt6atomicIbEE_St17reference_wrapperIS5_EmmSB_IS8_EEEEESaISG_ELN9__gnu_cxx12_Lock_policyE2EEEE9constructISK_IKSH_SF_EEEDTcl12_S_constructfp_fp0_spcl7forwardIT0_Efp1_EEERSL_PT_DpOSP_>
		    std::forward<_Args>(__args)...);
	      _M_pi = __mem;
  4031e1:	48 8b 45 d8          	mov    -0x28(%rbp),%rax
  4031e5:	48 8b 55 e8          	mov    -0x18(%rbp),%rdx
  4031e9:	48 89 10             	mov    %rdx,(%rax)
	    }
	  __catch(...)
	    {
	      _Alloc_traits::deallocate(__a2, __mem, 1);
	      __throw_exception_again;
	    }
  4031ec:	48 8d 45 e7          	lea    -0x19(%rbp),%rax
  4031f0:	48 89 c7             	mov    %rax,%rdi
  4031f3:	e8 70 00 00 00       	callq  403268 <_ZNSaISt23_Sp_counted_ptr_inplaceINSt6thread5_ImplISt12_Bind_simpleIFZ14run_experimentvEUlRN7barrier35centralized_sense_reversing_barrierEmmRSt6atomicIbEE_St17reference_wrapperIS4_EmmSA_IS7_EEEEESaISF_ELN9__gnu_cxx12_Lock_policyE2EEED1Ev>
  4031f8:	eb 49                	jmp    403243 <_ZNSt14__shared_countILN9__gnu_cxx12_Lock_policyE2EEC1INSt6thread5_ImplISt12_Bind_simpleIFZ14run_experimentvEUlRN7barrier35centralized_sense_reversing_barrierEmmRSt6atomicIbEE_St17reference_wrapperIS8_EmmSE_ISB_EEEEESaISJ_EISI_EEESt19_Sp_make_shared_tagPT_RKT0_DpOT1_+0xdf>
  4031fa:	48 89 c3             	mov    %rax,%rbx
	    {
	      _Alloc_traits::construct(__a2, __mem, std::move(__a),
		    std::forward<_Args>(__args)...);
	      _M_pi = __mem;
	    }
	  __catch(...)
  4031fd:	e8 8e e6 ff ff       	callq  401890 <__cxa_end_catch@plt>
  403202:	eb 28                	jmp    40322c <_ZNSt14__shared_countILN9__gnu_cxx12_Lock_policyE2EEC1INSt6thread5_ImplISt12_Bind_simpleIFZ14run_experimentvEUlRN7barrier35centralized_sense_reversing_barrierEmmRSt6atomicIbEE_St17reference_wrapperIS8_EmmSE_ISB_EEEEESaISJ_EISI_EEESt19_Sp_make_shared_tagPT_RKT0_DpOT1_+0xc8>
  403204:	48 89 c7             	mov    %rax,%rdi
  403207:	e8 c4 e6 ff ff       	callq  4018d0 <__cxa_begin_catch@plt>
	    {
	      _Alloc_traits::deallocate(__a2, __mem, 1);
  40320c:	48 8b 4d e8          	mov    -0x18(%rbp),%rcx
  403210:	48 8d 45 e7          	lea    -0x19(%rbp),%rax
  403214:	ba 01 00 00 00       	mov    $0x1,%edx
  403219:	48 89 ce             	mov    %rcx,%rsi
  40321c:	48 89 c7             	mov    %rax,%rdi
  40321f:	e8 d9 00 00 00       	callq  4032fd <_ZNSt16allocator_traitsISaISt23_Sp_counted_ptr_inplaceINSt6thread5_ImplISt12_Bind_simpleIFZ14run_experimentvEUlRN7barrier35centralized_sense_reversing_barrierEmmRSt6atomicIbEE_St17reference_wrapperIS5_EmmSB_IS8_EEEEESaISG_ELN9__gnu_cxx12_Lock_policyE2EEEE10deallocateERSL_PSK_m>
	      __throw_exception_again;
  403224:	e8 57 e4 ff ff       	callq  401680 <__cxa_rethrow@plt>
  403229:	48 89 c3             	mov    %rax,%rbx
	    }
  40322c:	48 8d 45 e7          	lea    -0x19(%rbp),%rax
  403230:	48 89 c7             	mov    %rax,%rdi
  403233:	e8 30 00 00 00       	callq  403268 <_ZNSaISt23_Sp_counted_ptr_inplaceINSt6thread5_ImplISt12_Bind_simpleIFZ14run_experimentvEUlRN7barrier35centralized_sense_reversing_barrierEmmRSt6atomicIbEE_St17reference_wrapperIS4_EmmSA_IS7_EEEEESaISF_ELN9__gnu_cxx12_Lock_policyE2EEED1Ev>
  403238:	48 89 d8             	mov    %rbx,%rax
  40323b:	48 89 c7             	mov    %rax,%rdi
  40323e:	e8 dd e6 ff ff       	callq  401920 <_Unwind_Resume@plt>
	}
  403243:	48 83 c4 38          	add    $0x38,%rsp
  403247:	5b                   	pop    %rbx
  403248:	5d                   	pop    %rbp
  403249:	c3                   	retq   

000000000040324a <_ZNSaISt23_Sp_counted_ptr_inplaceINSt6thread5_ImplISt12_Bind_simpleIFZ14run_experimentvEUlRN7barrier35centralized_sense_reversing_barrierEmmRSt6atomicIbEE_St17reference_wrapperIS4_EmmSA_IS7_EEEEESaISF_ELN9__gnu_cxx12_Lock_policyE2EEEC1ISF_EERKSaIT_E>:

      allocator(const allocator& __a) throw()
      : __allocator_base<_Tp>(__a) { }

      template<typename _Tp1>
        allocator(const allocator<_Tp1>&) throw() { }
  40324a:	55                   	push   %rbp
  40324b:	48 89 e5             	mov    %rsp,%rbp
  40324e:	48 83 ec 10          	sub    $0x10,%rsp
  403252:	48 89 7d f8          	mov    %rdi,-0x8(%rbp)
  403256:	48 89 75 f0          	mov    %rsi,-0x10(%rbp)
  40325a:	48 8b 45 f8          	mov    -0x8(%rbp),%rax
  40325e:	48 89 c7             	mov    %rax,%rdi
  403261:	e8 c4 00 00 00       	callq  40332a <_ZN9__gnu_cxx13new_allocatorISt23_Sp_counted_ptr_inplaceINSt6thread5_ImplISt12_Bind_simpleIFZ14run_experimentvEUlRN7barrier35centralized_sense_reversing_barrierEmmRSt6atomicIbEE_St17reference_wrapperIS6_EmmSC_IS9_EEEEESaISH_ELNS_12_Lock_policyE2EEEC2Ev>
  403266:	c9                   	leaveq 
  403267:	c3                   	retq   

0000000000403268 <_ZNSaISt23_Sp_counted_ptr_inplaceINSt6thread5_ImplISt12_Bind_simpleIFZ14run_experimentvEUlRN7barrier35centralized_sense_reversing_barrierEmmRSt6atomicIbEE_St17reference_wrapperIS4_EmmSA_IS7_EEEEESaISF_ELN9__gnu_cxx12_Lock_policyE2EEED1Ev>:

      ~allocator() throw() { }
  403268:	55                   	push   %rbp
  403269:	48 89 e5             	mov    %rsp,%rbp
  40326c:	48 83 ec 10          	sub    $0x10,%rsp
  403270:	48 89 7d f8          	mov    %rdi,-0x8(%rbp)
  403274:	48 8b 45 f8          	mov    -0x8(%rbp),%rax
  403278:	48 89 c7             	mov    %rax,%rdi
  40327b:	e8 b4 00 00 00       	callq  403334 <_ZN9__gnu_cxx13new_allocatorISt23_Sp_counted_ptr_inplaceINSt6thread5_ImplISt12_Bind_simpleIFZ14run_experimentvEUlRN7barrier35centralized_sense_reversing_barrierEmmRSt6atomicIbEE_St17reference_wrapperIS6_EmmSC_IS9_EEEEESaISH_ELNS_12_Lock_policyE2EEED2Ev>
  403280:	c9                   	leaveq 
  403281:	c3                   	retq   

0000000000403282 <_ZNSt16allocator_traitsISaISt23_Sp_counted_ptr_inplaceINSt6thread5_ImplISt12_Bind_simpleIFZ14run_experimentvEUlRN7barrier35centralized_sense_reversing_barrierEmmRSt6atomicIbEE_St17reference_wrapperIS5_EmmSB_IS8_EEEEESaISG_ELN9__gnu_cxx12_Lock_policyE2EEEE8allocateERSL_m>:
       *  @param  __n  The number of objects to allocate space for.
       *
       *  Calls @c a.allocate(n)
      */
      static pointer
      allocate(_Alloc& __a, size_type __n)
  403282:	55                   	push   %rbp
  403283:	48 89 e5             	mov    %rsp,%rbp
  403286:	48 83 ec 10          	sub    $0x10,%rsp
  40328a:	48 89 7d f8          	mov    %rdi,-0x8(%rbp)
  40328e:	48 89 75 f0          	mov    %rsi,-0x10(%rbp)
      { return __a.allocate(__n); }
  403292:	48 8b 4d f0          	mov    -0x10(%rbp),%rcx
  403296:	48 8b 45 f8          	mov    -0x8(%rbp),%rax
  40329a:	ba 00 00 00 00       	mov    $0x0,%edx
  40329f:	48 89 ce             	mov    %rcx,%rsi
  4032a2:	48 89 c7             	mov    %rax,%rdi
  4032a5:	e8 94 00 00 00       	callq  40333e <_ZN9__gnu_cxx13new_allocatorISt23_Sp_counted_ptr_inplaceINSt6thread5_ImplISt12_Bind_simpleIFZ14run_experimentvEUlRN7barrier35centralized_sense_reversing_barrierEmmRSt6atomicIbEE_St17reference_wrapperIS6_EmmSC_IS9_EEEEESaISH_ELNS_12_Lock_policyE2EEE8allocateEmPKv>
  4032aa:	c9                   	leaveq 
  4032ab:	c3                   	retq   

00000000004032ac <_ZNSt16allocator_traitsISaISt23_Sp_counted_ptr_inplaceINSt6thread5_ImplISt12_Bind_simpleIFZ14run_experimentvEUlRN7barrier35centralized_sense_reversing_barrierEmmRSt6atomicIbEE_St17reference_wrapperIS5_EmmSB_IS8_EEEEESaISG_ELN9__gnu_cxx12_Lock_policyE2EEEE9constructISK_IKSH_SF_EEEDTcl12_S_constructfp_fp0_spcl7forwardIT0_Efp1_EEERSL_PT_DpOSP_>:
       *  if that expression is well-formed, otherwise uses placement-new
       *  to construct an object of type @a _Tp at location @a __p from the
       *  arguments @a __args...
      */
      template<typename _Tp, typename... _Args>
	static auto construct(_Alloc& __a, _Tp* __p, _Args&&... __args)
  4032ac:	55                   	push   %rbp
  4032ad:	48 89 e5             	mov    %rsp,%rbp
  4032b0:	53                   	push   %rbx
  4032b1:	48 83 ec 28          	sub    $0x28,%rsp
  4032b5:	48 89 7d e8          	mov    %rdi,-0x18(%rbp)
  4032b9:	48 89 75 e0          	mov    %rsi,-0x20(%rbp)
  4032bd:	48 89 55 d8          	mov    %rdx,-0x28(%rbp)
  4032c1:	48 89 4d d0          	mov    %rcx,-0x30(%rbp)
	-> decltype(_S_construct(__a, __p, std::forward<_Args>(__args)...))
	{ _S_construct(__a, __p, std::forward<_Args>(__args)...); }
  4032c5:	48 8b 45 d0          	mov    -0x30(%rbp),%rax
  4032c9:	48 89 c7             	mov    %rax,%rdi
  4032cc:	e8 d1 f9 ff ff       	callq  402ca2 <_ZSt7forwardISt12_Bind_simpleIFZ14run_experimentvEUlRN7barrier35centralized_sense_reversing_barrierEmmRSt6atomicIbEE_St17reference_wrapperIS2_EmmS8_IS5_EEEEOT_RNSt16remove_referenceISD_E4typeE>
  4032d1:	48 89 c3             	mov    %rax,%rbx
  4032d4:	48 8b 45 d8          	mov    -0x28(%rbp),%rax
  4032d8:	48 89 c7             	mov    %rax,%rdi
  4032db:	e8 75 fe ff ff       	callq  403155 <_ZSt7forwardIKSaINSt6thread5_ImplISt12_Bind_simpleIFZ14run_experimentvEUlRN7barrier35centralized_sense_reversing_barrierEmmRSt6atomicIbEE_St17reference_wrapperIS4_EmmSA_IS7_EEEEEEEOT_RNSt16remove_referenceISI_E4typeE>
  4032e0:	48 89 c2             	mov    %rax,%rdx
  4032e3:	48 8b 75 e0          	mov    -0x20(%rbp),%rsi
  4032e7:	48 8b 45 e8          	mov    -0x18(%rbp),%rax
  4032eb:	48 89 d9             	mov    %rbx,%rcx
  4032ee:	48 89 c7             	mov    %rax,%rdi
  4032f1:	e8 94 00 00 00       	callq  40338a <_ZNSt16allocator_traitsISaISt23_Sp_counted_ptr_inplaceINSt6thread5_ImplISt12_Bind_simpleIFZ14run_experimentvEUlRN7barrier35centralized_sense_reversing_barrierEmmRSt6atomicIbEE_St17reference_wrapperIS5_EmmSB_IS8_EEEEESaISG_ELN9__gnu_cxx12_Lock_policyE2EEEE12_S_constructISK_IKSH_SF_EEENSt9enable_ifIXsrNSM_18__construct_helperIT_IDpT0_EEE5valueEvE4typeERSL_PSR_DpOSS_>
  4032f6:	48 83 c4 28          	add    $0x28,%rsp
  4032fa:	5b                   	pop    %rbx
  4032fb:	5d                   	pop    %rbp
  4032fc:	c3                   	retq   

00000000004032fd <_ZNSt16allocator_traitsISaISt23_Sp_counted_ptr_inplaceINSt6thread5_ImplISt12_Bind_simpleIFZ14run_experimentvEUlRN7barrier35centralized_sense_reversing_barrierEmmRSt6atomicIbEE_St17reference_wrapperIS5_EmmSB_IS8_EEEEESaISG_ELN9__gnu_cxx12_Lock_policyE2EEEE10deallocateERSL_PSK_m>:
       *  @param  __p  Pointer to the memory to deallocate.
       *  @param  __n  The number of objects space was allocated for.
       *
       *  Calls <tt> a.deallocate(p, n) </tt>
      */
      static void deallocate(_Alloc& __a, pointer __p, size_type __n)
  4032fd:	55                   	push   %rbp
  4032fe:	48 89 e5             	mov    %rsp,%rbp
  403301:	48 83 ec 20          	sub    $0x20,%rsp
  403305:	48 89 7d f8          	mov    %rdi,-0x8(%rbp)
  403309:	48 89 75 f0          	mov    %rsi,-0x10(%rbp)
  40330d:	48 89 55 e8          	mov    %rdx,-0x18(%rbp)
      { __a.deallocate(__p, __n); }
  403311:	48 8b 55 e8          	mov    -0x18(%rbp),%rdx
  403315:	48 8b 4d f0          	mov    -0x10(%rbp),%rcx
  403319:	48 8b 45 f8          	mov    -0x8(%rbp),%rax
  40331d:	48 89 ce             	mov    %rcx,%rsi
  403320:	48 89 c7             	mov    %rax,%rdi
  403323:	e8 b4 00 00 00       	callq  4033dc <_ZN9__gnu_cxx13new_allocatorISt23_Sp_counted_ptr_inplaceINSt6thread5_ImplISt12_Bind_simpleIFZ14run_experimentvEUlRN7barrier35centralized_sense_reversing_barrierEmmRSt6atomicIbEE_St17reference_wrapperIS6_EmmSC_IS9_EEEEESaISH_ELNS_12_Lock_policyE2EEE10deallocateEPSK_m>
  403328:	c9                   	leaveq 
  403329:	c3                   	retq   

000000000040332a <_ZN9__gnu_cxx13new_allocatorISt23_Sp_counted_ptr_inplaceINSt6thread5_ImplISt12_Bind_simpleIFZ14run_experimentvEUlRN7barrier35centralized_sense_reversing_barrierEmmRSt6atomicIbEE_St17reference_wrapperIS6_EmmSC_IS9_EEEEESaISH_ELNS_12_Lock_policyE2EEEC2Ev>:
      // _GLIBCXX_RESOLVE_LIB_DEFECTS
      // 2103. propagate_on_container_move_assignment
      typedef std::true_type propagate_on_container_move_assignment;
#endif

      new_allocator() _GLIBCXX_USE_NOEXCEPT { }
  40332a:	55                   	push   %rbp
  40332b:	48 89 e5             	mov    %rsp,%rbp
  40332e:	48 89 7d f8          	mov    %rdi,-0x8(%rbp)
  403332:	5d                   	pop    %rbp
  403333:	c3                   	retq   

0000000000403334 <_ZN9__gnu_cxx13new_allocatorISt23_Sp_counted_ptr_inplaceINSt6thread5_ImplISt12_Bind_simpleIFZ14run_experimentvEUlRN7barrier35centralized_sense_reversing_barrierEmmRSt6atomicIbEE_St17reference_wrapperIS6_EmmSC_IS9_EEEEESaISH_ELNS_12_Lock_policyE2EEED2Ev>:
      new_allocator(const new_allocator&) _GLIBCXX_USE_NOEXCEPT { }

      template<typename _Tp1>
        new_allocator(const new_allocator<_Tp1>&) _GLIBCXX_USE_NOEXCEPT { }

      ~new_allocator() _GLIBCXX_USE_NOEXCEPT { }
  403334:	55                   	push   %rbp
  403335:	48 89 e5             	mov    %rsp,%rbp
  403338:	48 89 7d f8          	mov    %rdi,-0x8(%rbp)
  40333c:	5d                   	pop    %rbp
  40333d:	c3                   	retq   

000000000040333e <_ZN9__gnu_cxx13new_allocatorISt23_Sp_counted_ptr_inplaceINSt6thread5_ImplISt12_Bind_simpleIFZ14run_experimentvEUlRN7barrier35centralized_sense_reversing_barrierEmmRSt6atomicIbEE_St17reference_wrapperIS6_EmmSC_IS9_EEEEESaISH_ELNS_12_Lock_policyE2EEE8allocateEmPKv>:
      { return std::__addressof(__x); }

      // NB: __n is permitted to be 0.  The C++ standard says nothing
      // about what the return value is when __n == 0.
      pointer
      allocate(size_type __n, const void* = 0)
  40333e:	55                   	push   %rbp
  40333f:	48 89 e5             	mov    %rsp,%rbp
  403342:	48 83 ec 20          	sub    $0x20,%rsp
  403346:	48 89 7d f8          	mov    %rdi,-0x8(%rbp)
  40334a:	48 89 75 f0          	mov    %rsi,-0x10(%rbp)
  40334e:	48 89 55 e8          	mov    %rdx,-0x18(%rbp)
      { 
	if (__n > this->max_size())
  403352:	48 8b 45 f8          	mov    -0x8(%rbp),%rax
  403356:	48 89 c7             	mov    %rax,%rdi
  403359:	e8 a0 00 00 00       	callq  4033fe <_ZNK9__gnu_cxx13new_allocatorISt23_Sp_counted_ptr_inplaceINSt6thread5_ImplISt12_Bind_simpleIFZ14run_experimentvEUlRN7barrier35centralized_sense_reversing_barrierEmmRSt6atomicIbEE_St17reference_wrapperIS6_EmmSC_IS9_EEEEESaISH_ELNS_12_Lock_policyE2EEE8max_sizeEv>
  40335e:	48 3b 45 f0          	cmp    -0x10(%rbp),%rax
  403362:	0f 92 c0             	setb   %al
  403365:	84 c0                	test   %al,%al
  403367:	74 05                	je     40336e <_ZN9__gnu_cxx13new_allocatorISt23_Sp_counted_ptr_inplaceINSt6thread5_ImplISt12_Bind_simpleIFZ14run_experimentvEUlRN7barrier35centralized_sense_reversing_barrierEmmRSt6atomicIbEE_St17reference_wrapperIS6_EmmSC_IS9_EEEEESaISH_ELNS_12_Lock_policyE2EEE8allocateEmPKv+0x30>
	  std::__throw_bad_alloc();
  403369:	e8 32 e5 ff ff       	callq  4018a0 <_ZSt17__throw_bad_allocv@plt>

	return static_cast<_Tp*>(::operator new(__n * sizeof(_Tp)));
  40336e:	48 8b 55 f0          	mov    -0x10(%rbp),%rdx
  403372:	48 89 d0             	mov    %rdx,%rax
  403375:	48 c1 e0 02          	shl    $0x2,%rax
  403379:	48 01 d0             	add    %rdx,%rax
  40337c:	48 c1 e0 04          	shl    $0x4,%rax
  403380:	48 89 c7             	mov    %rax,%rdi
  403383:	e8 88 e5 ff ff       	callq  401910 <_Znwm@plt>
      }
  403388:	c9                   	leaveq 
  403389:	c3                   	retq   

000000000040338a <_ZNSt16allocator_traitsISaISt23_Sp_counted_ptr_inplaceINSt6thread5_ImplISt12_Bind_simpleIFZ14run_experimentvEUlRN7barrier35centralized_sense_reversing_barrierEmmRSt6atomicIbEE_St17reference_wrapperIS5_EmmSB_IS8_EEEEESaISG_ELN9__gnu_cxx12_Lock_policyE2EEEE12_S_constructISK_IKSH_SF_EEENSt9enable_ifIXsrNSM_18__construct_helperIT_IDpT0_EEE5valueEvE4typeERSL_PSR_DpOSS_>:
	};

      template<typename _Tp, typename... _Args>
	static typename
       	enable_if<__construct_helper<_Tp, _Args...>::value, void>::type
       	_S_construct(_Alloc& __a, _Tp* __p, _Args&&... __args)
  40338a:	55                   	push   %rbp
  40338b:	48 89 e5             	mov    %rsp,%rbp
  40338e:	53                   	push   %rbx
  40338f:	48 83 ec 28          	sub    $0x28,%rsp
  403393:	48 89 7d e8          	mov    %rdi,-0x18(%rbp)
  403397:	48 89 75 e0          	mov    %rsi,-0x20(%rbp)
  40339b:	48 89 55 d8          	mov    %rdx,-0x28(%rbp)
  40339f:	48 89 4d d0          	mov    %rcx,-0x30(%rbp)
	{ __a.construct(__p, std::forward<_Args>(__args)...); }
  4033a3:	48 8b 45 d0          	mov    -0x30(%rbp),%rax
  4033a7:	48 89 c7             	mov    %rax,%rdi
  4033aa:	e8 f3 f8 ff ff       	callq  402ca2 <_ZSt7forwardISt12_Bind_simpleIFZ14run_experimentvEUlRN7barrier35centralized_sense_reversing_barrierEmmRSt6atomicIbEE_St17reference_wrapperIS2_EmmS8_IS5_EEEEOT_RNSt16remove_referenceISD_E4typeE>
  4033af:	48 89 c3             	mov    %rax,%rbx
  4033b2:	48 8b 45 d8          	mov    -0x28(%rbp),%rax
  4033b6:	48 89 c7             	mov    %rax,%rdi
  4033b9:	e8 97 fd ff ff       	callq  403155 <_ZSt7forwardIKSaINSt6thread5_ImplISt12_Bind_simpleIFZ14run_experimentvEUlRN7barrier35centralized_sense_reversing_barrierEmmRSt6atomicIbEE_St17reference_wrapperIS4_EmmSA_IS7_EEEEEEEOT_RNSt16remove_referenceISI_E4typeE>
  4033be:	48 89 c2             	mov    %rax,%rdx
  4033c1:	48 8b 75 e0          	mov    -0x20(%rbp),%rsi
  4033c5:	48 8b 45 e8          	mov    -0x18(%rbp),%rax
  4033c9:	48 89 d9             	mov    %rbx,%rcx
  4033cc:	48 89 c7             	mov    %rax,%rdi
  4033cf:	e8 3e 00 00 00       	callq  403412 <_ZN9__gnu_cxx13new_allocatorISt23_Sp_counted_ptr_inplaceINSt6thread5_ImplISt12_Bind_simpleIFZ14run_experimentvEUlRN7barrier35centralized_sense_reversing_barrierEmmRSt6atomicIbEE_St17reference_wrapperIS6_EmmSC_IS9_EEEEESaISH_ELNS_12_Lock_policyE2EEE9constructISK_IKSI_SG_EEEvPT_DpOT0_>
  4033d4:	48 83 c4 28          	add    $0x28,%rsp
  4033d8:	5b                   	pop    %rbx
  4033d9:	5d                   	pop    %rbp
  4033da:	c3                   	retq   
  4033db:	90                   	nop

00000000004033dc <_ZN9__gnu_cxx13new_allocatorISt23_Sp_counted_ptr_inplaceINSt6thread5_ImplISt12_Bind_simpleIFZ14run_experimentvEUlRN7barrier35centralized_sense_reversing_barrierEmmRSt6atomicIbEE_St17reference_wrapperIS6_EmmSC_IS9_EEEEESaISH_ELNS_12_Lock_policyE2EEE10deallocateEPSK_m>:

      // __p is not permitted to be a null pointer.
      void
      deallocate(pointer __p, size_type)
  4033dc:	55                   	push   %rbp
  4033dd:	48 89 e5             	mov    %rsp,%rbp
  4033e0:	48 83 ec 20          	sub    $0x20,%rsp
  4033e4:	48 89 7d f8          	mov    %rdi,-0x8(%rbp)
  4033e8:	48 89 75 f0          	mov    %rsi,-0x10(%rbp)
  4033ec:	48 89 55 e8          	mov    %rdx,-0x18(%rbp)
      { ::operator delete(__p); }
  4033f0:	48 8b 45 f0          	mov    -0x10(%rbp),%rax
  4033f4:	48 89 c7             	mov    %rax,%rdi
  4033f7:	e8 64 e2 ff ff       	callq  401660 <_ZdlPv@plt>
  4033fc:	c9                   	leaveq 
  4033fd:	c3                   	retq   

00000000004033fe <_ZNK9__gnu_cxx13new_allocatorISt23_Sp_counted_ptr_inplaceINSt6thread5_ImplISt12_Bind_simpleIFZ14run_experimentvEUlRN7barrier35centralized_sense_reversing_barrierEmmRSt6atomicIbEE_St17reference_wrapperIS6_EmmSC_IS9_EEEEESaISH_ELNS_12_Lock_policyE2EEE8max_sizeEv>:

      size_type
      max_size() const _GLIBCXX_USE_NOEXCEPT
  4033fe:	55                   	push   %rbp
  4033ff:	48 89 e5             	mov    %rsp,%rbp
  403402:	48 89 7d f8          	mov    %rdi,-0x8(%rbp)
      { return size_t(-1) / sizeof(_Tp); }
  403406:	48 b8 33 33 33 33 33 	movabs $0x333333333333333,%rax
  40340d:	33 33 03 
  403410:	5d                   	pop    %rbp
  403411:	c3                   	retq   

0000000000403412 <_ZN9__gnu_cxx13new_allocatorISt23_Sp_counted_ptr_inplaceINSt6thread5_ImplISt12_Bind_simpleIFZ14run_experimentvEUlRN7barrier35centralized_sense_reversing_barrierEmmRSt6atomicIbEE_St17reference_wrapperIS6_EmmSC_IS9_EEEEESaISH_ELNS_12_Lock_policyE2EEE9constructISK_IKSI_SG_EEEvPT_DpOT0_>:

#if __cplusplus >= 201103L
      template<typename _Up, typename... _Args>
        void
        construct(_Up* __p, _Args&&... __args)
  403412:	55                   	push   %rbp
  403413:	48 89 e5             	mov    %rsp,%rbp
  403416:	41 56                	push   %r14
  403418:	41 55                	push   %r13
  40341a:	41 54                	push   %r12
  40341c:	53                   	push   %rbx
  40341d:	48 83 ec 30          	sub    $0x30,%rsp
  403421:	48 89 7d c8          	mov    %rdi,-0x38(%rbp)
  403425:	48 89 75 c0          	mov    %rsi,-0x40(%rbp)
  403429:	48 89 55 b8          	mov    %rdx,-0x48(%rbp)
  40342d:	48 89 4d b0          	mov    %rcx,-0x50(%rbp)
	{ ::new((void *)__p) _Up(std::forward<_Args>(__args)...); }
  403431:	48 8b 45 b8          	mov    -0x48(%rbp),%rax
  403435:	48 89 c7             	mov    %rax,%rdi
  403438:	e8 18 fd ff ff       	callq  403155 <_ZSt7forwardIKSaINSt6thread5_ImplISt12_Bind_simpleIFZ14run_experimentvEUlRN7barrier35centralized_sense_reversing_barrierEmmRSt6atomicIbEE_St17reference_wrapperIS4_EmmSA_IS7_EEEEEEEOT_RNSt16remove_referenceISI_E4typeE>
  40343d:	48 89 c2             	mov    %rax,%rdx
  403440:	48 8d 45 df          	lea    -0x21(%rbp),%rax
  403444:	48 89 d6             	mov    %rdx,%rsi
  403447:	48 89 c7             	mov    %rax,%rdi
  40344a:	e8 7d 00 00 00       	callq  4034cc <_ZNSaINSt6thread5_ImplISt12_Bind_simpleIFZ14run_experimentvEUlRN7barrier35centralized_sense_reversing_barrierEmmRSt6atomicIbEE_St17reference_wrapperIS3_EmmS9_IS6_EEEEEEC1ERKSF_>
  40344f:	4c 8d 6d df          	lea    -0x21(%rbp),%r13
  403453:	48 8b 45 b0          	mov    -0x50(%rbp),%rax
  403457:	48 89 c7             	mov    %rax,%rdi
  40345a:	e8 43 f8 ff ff       	callq  402ca2 <_ZSt7forwardISt12_Bind_simpleIFZ14run_experimentvEUlRN7barrier35centralized_sense_reversing_barrierEmmRSt6atomicIbEE_St17reference_wrapperIS2_EmmS8_IS5_EEEEOT_RNSt16remove_referenceISD_E4typeE>
  40345f:	49 89 c6             	mov    %rax,%r14
  403462:	4c 8b 65 c0          	mov    -0x40(%rbp),%r12
  403466:	4c 89 e6             	mov    %r12,%rsi
  403469:	bf 50 00 00 00       	mov    $0x50,%edi
  40346e:	e8 ea 06 00 00       	callq  403b5d <_ZnwmPv>
  403473:	48 89 c3             	mov    %rax,%rbx
  403476:	48 85 db             	test   %rbx,%rbx
  403479:	74 0e                	je     403489 <_ZN9__gnu_cxx13new_allocatorISt23_Sp_counted_ptr_inplaceINSt6thread5_ImplISt12_Bind_simpleIFZ14run_experimentvEUlRN7barrier35centralized_sense_reversing_barrierEmmRSt6atomicIbEE_St17reference_wrapperIS6_EmmSC_IS9_EEEEESaISH_ELNS_12_Lock_policyE2EEE9constructISK_IKSI_SG_EEEvPT_DpOT0_+0x77>
  40347b:	4c 89 f2             	mov    %r14,%rdx
  40347e:	4c 89 ee             	mov    %r13,%rsi
  403481:	48 89 df             	mov    %rbx,%rdi
  403484:	e8 83 00 00 00       	callq  40350c <_ZNSt23_Sp_counted_ptr_inplaceINSt6thread5_ImplISt12_Bind_simpleIFZ14run_experimentvEUlRN7barrier35centralized_sense_reversing_barrierEmmRSt6atomicIbEE_St17reference_wrapperIS4_EmmSA_IS7_EEEEESaISF_ELN9__gnu_cxx12_Lock_policyE2EEC1IISE_EEESG_DpOT_>
  403489:	48 8d 45 df          	lea    -0x21(%rbp),%rax
  40348d:	48 89 c7             	mov    %rax,%rdi
  403490:	e8 5d fb ff ff       	callq  402ff2 <_ZNSaINSt6thread5_ImplISt12_Bind_simpleIFZ14run_experimentvEUlRN7barrier35centralized_sense_reversing_barrierEmmRSt6atomicIbEE_St17reference_wrapperIS3_EmmS9_IS6_EEEEEED1Ev>
  403495:	eb 28                	jmp    4034bf <_ZN9__gnu_cxx13new_allocatorISt23_Sp_counted_ptr_inplaceINSt6thread5_ImplISt12_Bind_simpleIFZ14run_experimentvEUlRN7barrier35centralized_sense_reversing_barrierEmmRSt6atomicIbEE_St17reference_wrapperIS6_EmmSC_IS9_EEEEESaISH_ELNS_12_Lock_policyE2EEE9constructISK_IKSI_SG_EEEvPT_DpOT0_+0xad>
  403497:	49 89 c5             	mov    %rax,%r13
  40349a:	4c 89 e6             	mov    %r12,%rsi
  40349d:	48 89 df             	mov    %rbx,%rdi
  4034a0:	e8 ca 06 00 00       	callq  403b6f <_ZdlPvS_>
  4034a5:	4c 89 eb             	mov    %r13,%rbx
  4034a8:	48 8d 45 df          	lea    -0x21(%rbp),%rax
  4034ac:	48 89 c7             	mov    %rax,%rdi
  4034af:	e8 3e fb ff ff       	callq  402ff2 <_ZNSaINSt6thread5_ImplISt12_Bind_simpleIFZ14run_experimentvEUlRN7barrier35centralized_sense_reversing_barrierEmmRSt6atomicIbEE_St17reference_wrapperIS3_EmmS9_IS6_EEEEEED1Ev>
  4034b4:	48 89 d8             	mov    %rbx,%rax
  4034b7:	48 89 c7             	mov    %rax,%rdi
  4034ba:	e8 61 e4 ff ff       	callq  401920 <_Unwind_Resume@plt>
  4034bf:	48 83 c4 30          	add    $0x30,%rsp
  4034c3:	5b                   	pop    %rbx
  4034c4:	41 5c                	pop    %r12
  4034c6:	41 5d                	pop    %r13
  4034c8:	41 5e                	pop    %r14
  4034ca:	5d                   	pop    %rbp
  4034cb:	c3                   	retq   

00000000004034cc <_ZNSaINSt6thread5_ImplISt12_Bind_simpleIFZ14run_experimentvEUlRN7barrier35centralized_sense_reversing_barrierEmmRSt6atomicIbEE_St17reference_wrapperIS3_EmmS9_IS6_EEEEEEC1ERKSF_>:
      typedef true_type propagate_on_container_move_assignment;
#endif

      allocator() throw() { }

      allocator(const allocator& __a) throw()
  4034cc:	55                   	push   %rbp
  4034cd:	48 89 e5             	mov    %rsp,%rbp
  4034d0:	48 83 ec 10          	sub    $0x10,%rsp
  4034d4:	48 89 7d f8          	mov    %rdi,-0x8(%rbp)
  4034d8:	48 89 75 f0          	mov    %rsi,-0x10(%rbp)
      : __allocator_base<_Tp>(__a) { }
  4034dc:	48 8b 55 f0          	mov    -0x10(%rbp),%rdx
  4034e0:	48 8b 45 f8          	mov    -0x8(%rbp),%rax
  4034e4:	48 89 d6             	mov    %rdx,%rsi
  4034e7:	48 89 c7             	mov    %rax,%rdi
  4034ea:	e8 e9 00 00 00       	callq  4035d8 <_ZN9__gnu_cxx13new_allocatorINSt6thread5_ImplISt12_Bind_simpleIFZ14run_experimentvEUlRN7barrier35centralized_sense_reversing_barrierEmmRSt6atomicIbEE_St17reference_wrapperIS5_EmmSB_IS8_EEEEEEC2ERKSH_>
  4034ef:	c9                   	leaveq 
  4034f0:	c3                   	retq   
  4034f1:	90                   	nop

00000000004034f2 <_ZNSt23_Sp_counted_ptr_inplaceINSt6thread5_ImplISt12_Bind_simpleIFZ14run_experimentvEUlRN7barrier35centralized_sense_reversing_barrierEmmRSt6atomicIbEE_St17reference_wrapperIS4_EmmSA_IS7_EEEEESaISF_ELN9__gnu_cxx12_Lock_policyE2EE5_ImplD1Ev>:
    class _Sp_counted_ptr_inplace final : public _Sp_counted_base<_Lp>
    {
      // Helper class that stores the pointer and also acts as an allocator.
      // Used to dispose of the owned pointer and the internal refcount
      // Requires that copies of _Alloc can free each other's memory.
      struct _Impl
  4034f2:	55                   	push   %rbp
  4034f3:	48 89 e5             	mov    %rsp,%rbp
  4034f6:	48 83 ec 10          	sub    $0x10,%rsp
  4034fa:	48 89 7d f8          	mov    %rdi,-0x8(%rbp)
  4034fe:	48 8b 45 f8          	mov    -0x8(%rbp),%rax
  403502:	48 89 c7             	mov    %rax,%rdi
  403505:	e8 e8 fa ff ff       	callq  402ff2 <_ZNSaINSt6thread5_ImplISt12_Bind_simpleIFZ14run_experimentvEUlRN7barrier35centralized_sense_reversing_barrierEmmRSt6atomicIbEE_St17reference_wrapperIS3_EmmS9_IS6_EEEEEED1Ev>
  40350a:	c9                   	leaveq 
  40350b:	c3                   	retq   

000000000040350c <_ZNSt23_Sp_counted_ptr_inplaceINSt6thread5_ImplISt12_Bind_simpleIFZ14run_experimentvEUlRN7barrier35centralized_sense_reversing_barrierEmmRSt6atomicIbEE_St17reference_wrapperIS4_EmmSA_IS7_EEEEESaISF_ELN9__gnu_cxx12_Lock_policyE2EEC1IISE_EEESG_DpOT_>:
	_Tp* _M_ptr;
      };

    public:
      template<typename... _Args>
	_Sp_counted_ptr_inplace(_Alloc __a, _Args&&... __args)
  40350c:	55                   	push   %rbp
  40350d:	48 89 e5             	mov    %rsp,%rbp
  403510:	53                   	push   %rbx
  403511:	48 83 ec 38          	sub    $0x38,%rsp
  403515:	48 89 7d d8          	mov    %rdi,-0x28(%rbp)
  403519:	48 89 75 d0          	mov    %rsi,-0x30(%rbp)
  40351d:	48 89 55 c8          	mov    %rdx,-0x38(%rbp)
	: _M_impl(__a)
  403521:	48 8b 45 d8          	mov    -0x28(%rbp),%rax
  403525:	48 89 c7             	mov    %rax,%rdi
  403528:	e8 f1 7f 00 00       	callq  40b51e <_ZNSt16_Sp_counted_baseILN9__gnu_cxx12_Lock_policyE2EEC1Ev>
  40352d:	48 8b 45 d8          	mov    -0x28(%rbp),%rax
  403531:	48 c7 00 f0 be 40 00 	movq   $0x40bef0,(%rax)
  403538:	48 8b 55 d0          	mov    -0x30(%rbp),%rdx
  40353c:	48 8d 45 ef          	lea    -0x11(%rbp),%rax
  403540:	48 89 d6             	mov    %rdx,%rsi
  403543:	48 89 c7             	mov    %rax,%rdi
  403546:	e8 81 ff ff ff       	callq  4034cc <_ZNSaINSt6thread5_ImplISt12_Bind_simpleIFZ14run_experimentvEUlRN7barrier35centralized_sense_reversing_barrierEmmRSt6atomicIbEE_St17reference_wrapperIS3_EmmS9_IS6_EEEEEEC1ERKSF_>
  40354b:	48 8b 45 d8          	mov    -0x28(%rbp),%rax
  40354f:	48 8d 50 10          	lea    0x10(%rax),%rdx
  403553:	48 8d 45 ef          	lea    -0x11(%rbp),%rax
  403557:	48 89 c6             	mov    %rax,%rsi
  40355a:	48 89 d7             	mov    %rdx,%rdi
  40355d:	e8 84 00 00 00       	callq  4035e6 <_ZNSt23_Sp_counted_ptr_inplaceINSt6thread5_ImplISt12_Bind_simpleIFZ14run_experimentvEUlRN7barrier35centralized_sense_reversing_barrierEmmRSt6atomicIbEE_St17reference_wrapperIS4_EmmSA_IS7_EEEEESaISF_ELN9__gnu_cxx12_Lock_policyE2EE5_ImplC1ESG_>
  403562:	48 8d 45 ef          	lea    -0x11(%rbp),%rax
  403566:	48 89 c7             	mov    %rax,%rdi
  403569:	e8 84 fa ff ff       	callq  402ff2 <_ZNSaINSt6thread5_ImplISt12_Bind_simpleIFZ14run_experimentvEUlRN7barrier35centralized_sense_reversing_barrierEmmRSt6atomicIbEE_St17reference_wrapperIS3_EmmS9_IS6_EEEEEED1Ev>
	{
	  _M_impl._M_ptr = static_cast<_Tp*>(static_cast<void*>(&_M_storage));
  40356e:	48 8b 45 d8          	mov    -0x28(%rbp),%rax
  403572:	48 8d 50 18          	lea    0x18(%rax),%rdx
  403576:	48 8b 45 d8          	mov    -0x28(%rbp),%rax
  40357a:	48 89 50 10          	mov    %rdx,0x10(%rax)
	  // _GLIBCXX_RESOLVE_LIB_DEFECTS
	  // 2070.  allocate_shared should use allocator_traits<A>::construct
	  allocator_traits<_Alloc>::construct(__a, _M_impl._M_ptr,
	      std::forward<_Args>(__args)...); // might throw
  40357e:	48 8b 45 c8          	mov    -0x38(%rbp),%rax
  403582:	48 89 c7             	mov    %rax,%rdi
  403585:	e8 18 f7 ff ff       	callq  402ca2 <_ZSt7forwardISt12_Bind_simpleIFZ14run_experimentvEUlRN7barrier35centralized_sense_reversing_barrierEmmRSt6atomicIbEE_St17reference_wrapperIS2_EmmS8_IS5_EEEEOT_RNSt16remove_referenceISD_E4typeE>
  40358a:	48 89 c2             	mov    %rax,%rdx
  40358d:	48 8b 45 d8          	mov    -0x28(%rbp),%rax
  403591:	48 8b 48 10          	mov    0x10(%rax),%rcx
	: _M_impl(__a)
	{
	  _M_impl._M_ptr = static_cast<_Tp*>(static_cast<void*>(&_M_storage));
	  // _GLIBCXX_RESOLVE_LIB_DEFECTS
	  // 2070.  allocate_shared should use allocator_traits<A>::construct
	  allocator_traits<_Alloc>::construct(__a, _M_impl._M_ptr,
  403595:	48 8b 45 d0          	mov    -0x30(%rbp),%rax
  403599:	48 89 ce             	mov    %rcx,%rsi
  40359c:	48 89 c7             	mov    %rax,%rdi
  40359f:	e8 72 00 00 00       	callq  403616 <_ZNSt16allocator_traitsISaINSt6thread5_ImplISt12_Bind_simpleIFZ14run_experimentvEUlRN7barrier35centralized_sense_reversing_barrierEmmRSt6atomicIbEE_St17reference_wrapperIS4_EmmSA_IS7_EEEEEEE9constructISF_ISE_EEEDTcl12_S_constructfp_fp0_spcl7forwardIT0_Efp1_EEERSG_PT_DpOSJ_>
	      std::forward<_Args>(__args)...); // might throw
	}
  4035a4:	eb 2a                	jmp    4035d0 <_ZNSt23_Sp_counted_ptr_inplaceINSt6thread5_ImplISt12_Bind_simpleIFZ14run_experimentvEUlRN7barrier35centralized_sense_reversing_barrierEmmRSt6atomicIbEE_St17reference_wrapperIS4_EmmSA_IS7_EEEEESaISF_ELN9__gnu_cxx12_Lock_policyE2EEC1IISE_EEESG_DpOT_+0xc4>
  4035a6:	48 89 c3             	mov    %rax,%rbx
      };

    public:
      template<typename... _Args>
	_Sp_counted_ptr_inplace(_Alloc __a, _Args&&... __args)
	: _M_impl(__a)
  4035a9:	48 8b 45 d8          	mov    -0x28(%rbp),%rax
  4035ad:	48 83 c0 10          	add    $0x10,%rax
  4035b1:	48 89 c7             	mov    %rax,%rdi
  4035b4:	e8 39 ff ff ff       	callq  4034f2 <_ZNSt23_Sp_counted_ptr_inplaceINSt6thread5_ImplISt12_Bind_simpleIFZ14run_experimentvEUlRN7barrier35centralized_sense_reversing_barrierEmmRSt6atomicIbEE_St17reference_wrapperIS4_EmmSA_IS7_EEEEESaISF_ELN9__gnu_cxx12_Lock_policyE2EE5_ImplD1Ev>
  4035b9:	48 8b 45 d8          	mov    -0x28(%rbp),%rax
  4035bd:	48 89 c7             	mov    %rax,%rdi
  4035c0:	e8 c1 54 00 00       	callq  408a86 <_ZNSt16_Sp_counted_baseILN9__gnu_cxx12_Lock_policyE2EED1Ev>
  4035c5:	48 89 d8             	mov    %rbx,%rax
  4035c8:	48 89 c7             	mov    %rax,%rdi
  4035cb:	e8 50 e3 ff ff       	callq  401920 <_Unwind_Resume@plt>
	  _M_impl._M_ptr = static_cast<_Tp*>(static_cast<void*>(&_M_storage));
	  // _GLIBCXX_RESOLVE_LIB_DEFECTS
	  // 2070.  allocate_shared should use allocator_traits<A>::construct
	  allocator_traits<_Alloc>::construct(__a, _M_impl._M_ptr,
	      std::forward<_Args>(__args)...); // might throw
	}
  4035d0:	48 83 c4 38          	add    $0x38,%rsp
  4035d4:	5b                   	pop    %rbx
  4035d5:	5d                   	pop    %rbp
  4035d6:	c3                   	retq   
  4035d7:	90                   	nop

00000000004035d8 <_ZN9__gnu_cxx13new_allocatorINSt6thread5_ImplISt12_Bind_simpleIFZ14run_experimentvEUlRN7barrier35centralized_sense_reversing_barrierEmmRSt6atomicIbEE_St17reference_wrapperIS5_EmmSB_IS8_EEEEEEC2ERKSH_>:
      typedef std::true_type propagate_on_container_move_assignment;
#endif

      new_allocator() _GLIBCXX_USE_NOEXCEPT { }

      new_allocator(const new_allocator&) _GLIBCXX_USE_NOEXCEPT { }
  4035d8:	55                   	push   %rbp
  4035d9:	48 89 e5             	mov    %rsp,%rbp
  4035dc:	48 89 7d f8          	mov    %rdi,-0x8(%rbp)
  4035e0:	48 89 75 f0          	mov    %rsi,-0x10(%rbp)
  4035e4:	5d                   	pop    %rbp
  4035e5:	c3                   	retq   

00000000004035e6 <_ZNSt23_Sp_counted_ptr_inplaceINSt6thread5_ImplISt12_Bind_simpleIFZ14run_experimentvEUlRN7barrier35centralized_sense_reversing_barrierEmmRSt6atomicIbEE_St17reference_wrapperIS4_EmmSA_IS7_EEEEESaISF_ELN9__gnu_cxx12_Lock_policyE2EE5_ImplC1ESG_>:
      // Used to dispose of the owned pointer and the internal refcount
      // Requires that copies of _Alloc can free each other's memory.
      struct _Impl
      : public _Alloc           // copy constructor must not throw
      {
	_Impl(_Alloc __a) : _Alloc(__a), _M_ptr() { }
  4035e6:	55                   	push   %rbp
  4035e7:	48 89 e5             	mov    %rsp,%rbp
  4035ea:	48 83 ec 10          	sub    $0x10,%rsp
  4035ee:	48 89 7d f8          	mov    %rdi,-0x8(%rbp)
  4035f2:	48 89 75 f0          	mov    %rsi,-0x10(%rbp)
  4035f6:	48 8b 55 f0          	mov    -0x10(%rbp),%rdx
  4035fa:	48 8b 45 f8          	mov    -0x8(%rbp),%rax
  4035fe:	48 89 d6             	mov    %rdx,%rsi
  403601:	48 89 c7             	mov    %rax,%rdi
  403604:	e8 c3 fe ff ff       	callq  4034cc <_ZNSaINSt6thread5_ImplISt12_Bind_simpleIFZ14run_experimentvEUlRN7barrier35centralized_sense_reversing_barrierEmmRSt6atomicIbEE_St17reference_wrapperIS3_EmmS9_IS6_EEEEEEC1ERKSF_>
  403609:	48 8b 45 f8          	mov    -0x8(%rbp),%rax
  40360d:	48 c7 00 00 00 00 00 	movq   $0x0,(%rax)
  403614:	c9                   	leaveq 
  403615:	c3                   	retq   

0000000000403616 <_ZNSt16allocator_traitsISaINSt6thread5_ImplISt12_Bind_simpleIFZ14run_experimentvEUlRN7barrier35centralized_sense_reversing_barrierEmmRSt6atomicIbEE_St17reference_wrapperIS4_EmmSA_IS7_EEEEEEE9constructISF_ISE_EEEDTcl12_S_constructfp_fp0_spcl7forwardIT0_Efp1_EEERSG_PT_DpOSJ_>:
       *  if that expression is well-formed, otherwise uses placement-new
       *  to construct an object of type @a _Tp at location @a __p from the
       *  arguments @a __args...
      */
      template<typename _Tp, typename... _Args>
	static auto construct(_Alloc& __a, _Tp* __p, _Args&&... __args)
  403616:	55                   	push   %rbp
  403617:	48 89 e5             	mov    %rsp,%rbp
  40361a:	48 83 ec 20          	sub    $0x20,%rsp
  40361e:	48 89 7d f8          	mov    %rdi,-0x8(%rbp)
  403622:	48 89 75 f0          	mov    %rsi,-0x10(%rbp)
  403626:	48 89 55 e8          	mov    %rdx,-0x18(%rbp)
	-> decltype(_S_construct(__a, __p, std::forward<_Args>(__args)...))
	{ _S_construct(__a, __p, std::forward<_Args>(__args)...); }
  40362a:	48 8b 45 e8          	mov    -0x18(%rbp),%rax
  40362e:	48 89 c7             	mov    %rax,%rdi
  403631:	e8 6c f6 ff ff       	callq  402ca2 <_ZSt7forwardISt12_Bind_simpleIFZ14run_experimentvEUlRN7barrier35centralized_sense_reversing_barrierEmmRSt6atomicIbEE_St17reference_wrapperIS2_EmmS8_IS5_EEEEOT_RNSt16remove_referenceISD_E4typeE>
  403636:	48 89 c2             	mov    %rax,%rdx
  403639:	48 8b 4d f0          	mov    -0x10(%rbp),%rcx
  40363d:	48 8b 45 f8          	mov    -0x8(%rbp),%rax
  403641:	48 89 ce             	mov    %rcx,%rsi
  403644:	48 89 c7             	mov    %rax,%rdi
  403647:	e8 02 00 00 00       	callq  40364e <_ZNSt16allocator_traitsISaINSt6thread5_ImplISt12_Bind_simpleIFZ14run_experimentvEUlRN7barrier35centralized_sense_reversing_barrierEmmRSt6atomicIbEE_St17reference_wrapperIS4_EmmSA_IS7_EEEEEEE12_S_constructISF_ISE_EEENSt9enable_ifIXsrNSH_18__construct_helperIT_IDpT0_EEE5valueEvE4typeERSG_PSL_DpOSM_>
  40364c:	c9                   	leaveq 
  40364d:	c3                   	retq   

000000000040364e <_ZNSt16allocator_traitsISaINSt6thread5_ImplISt12_Bind_simpleIFZ14run_experimentvEUlRN7barrier35centralized_sense_reversing_barrierEmmRSt6atomicIbEE_St17reference_wrapperIS4_EmmSA_IS7_EEEEEEE12_S_constructISF_ISE_EEENSt9enable_ifIXsrNSH_18__construct_helperIT_IDpT0_EEE5valueEvE4typeERSG_PSL_DpOSM_>:
	};

      template<typename _Tp, typename... _Args>
	static typename
       	enable_if<__construct_helper<_Tp, _Args...>::value, void>::type
       	_S_construct(_Alloc& __a, _Tp* __p, _Args&&... __args)
  40364e:	55                   	push   %rbp
  40364f:	48 89 e5             	mov    %rsp,%rbp
  403652:	48 83 ec 20          	sub    $0x20,%rsp
  403656:	48 89 7d f8          	mov    %rdi,-0x8(%rbp)
  40365a:	48 89 75 f0          	mov    %rsi,-0x10(%rbp)
  40365e:	48 89 55 e8          	mov    %rdx,-0x18(%rbp)
	{ __a.construct(__p, std::forward<_Args>(__args)...); }
  403662:	48 8b 45 e8          	mov    -0x18(%rbp),%rax
  403666:	48 89 c7             	mov    %rax,%rdi
  403669:	e8 34 f6 ff ff       	callq  402ca2 <_ZSt7forwardISt12_Bind_simpleIFZ14run_experimentvEUlRN7barrier35centralized_sense_reversing_barrierEmmRSt6atomicIbEE_St17reference_wrapperIS2_EmmS8_IS5_EEEEOT_RNSt16remove_referenceISD_E4typeE>
  40366e:	48 89 c2             	mov    %rax,%rdx
  403671:	48 8b 4d f0          	mov    -0x10(%rbp),%rcx
  403675:	48 8b 45 f8          	mov    -0x8(%rbp),%rax
  403679:	48 89 ce             	mov    %rcx,%rsi
  40367c:	48 89 c7             	mov    %rax,%rdi
  40367f:	e8 02 00 00 00       	callq  403686 <_ZN9__gnu_cxx13new_allocatorINSt6thread5_ImplISt12_Bind_simpleIFZ14run_experimentvEUlRN7barrier35centralized_sense_reversing_barrierEmmRSt6atomicIbEE_St17reference_wrapperIS5_EmmSB_IS8_EEEEEE9constructISG_ISF_EEEvPT_DpOT0_>
  403684:	c9                   	leaveq 
  403685:	c3                   	retq   

0000000000403686 <_ZN9__gnu_cxx13new_allocatorINSt6thread5_ImplISt12_Bind_simpleIFZ14run_experimentvEUlRN7barrier35centralized_sense_reversing_barrierEmmRSt6atomicIbEE_St17reference_wrapperIS5_EmmSB_IS8_EEEEEE9constructISG_ISF_EEEvPT_DpOT0_>:
      { return size_t(-1) / sizeof(_Tp); }

#if __cplusplus >= 201103L
      template<typename _Up, typename... _Args>
        void
        construct(_Up* __p, _Args&&... __args)
  403686:	55                   	push   %rbp
  403687:	48 89 e5             	mov    %rsp,%rbp
  40368a:	53                   	push   %rbx
  40368b:	48 83 ec 28          	sub    $0x28,%rsp
  40368f:	48 89 7d e8          	mov    %rdi,-0x18(%rbp)
  403693:	48 89 75 e0          	mov    %rsi,-0x20(%rbp)
  403697:	48 89 55 d8          	mov    %rdx,-0x28(%rbp)
	{ ::new((void *)__p) _Up(std::forward<_Args>(__args)...); }
  40369b:	48 8b 45 d8          	mov    -0x28(%rbp),%rax
  40369f:	48 89 c7             	mov    %rax,%rdi
  4036a2:	e8 fb f5 ff ff       	callq  402ca2 <_ZSt7forwardISt12_Bind_simpleIFZ14run_experimentvEUlRN7barrier35centralized_sense_reversing_barrierEmmRSt6atomicIbEE_St17reference_wrapperIS2_EmmS8_IS5_EEEEOT_RNSt16remove_referenceISD_E4typeE>
  4036a7:	48 89 c3             	mov    %rax,%rbx
  4036aa:	48 8b 45 e0          	mov    -0x20(%rbp),%rax
  4036ae:	48 89 c6             	mov    %rax,%rsi
  4036b1:	bf 38 00 00 00       	mov    $0x38,%edi
  4036b6:	e8 a2 04 00 00       	callq  403b5d <_ZnwmPv>
  4036bb:	48 85 c0             	test   %rax,%rax
  4036be:	74 0b                	je     4036cb <_ZN9__gnu_cxx13new_allocatorINSt6thread5_ImplISt12_Bind_simpleIFZ14run_experimentvEUlRN7barrier35centralized_sense_reversing_barrierEmmRSt6atomicIbEE_St17reference_wrapperIS5_EmmSB_IS8_EEEEEE9constructISG_ISF_EEEvPT_DpOT0_+0x45>
  4036c0:	48 89 de             	mov    %rbx,%rsi
  4036c3:	48 89 c7             	mov    %rax,%rdi
  4036c6:	e8 07 00 00 00       	callq  4036d2 <_ZNSt6thread5_ImplISt12_Bind_simpleIFZ14run_experimentvEUlRN7barrier35centralized_sense_reversing_barrierEmmRSt6atomicIbEE_St17reference_wrapperIS3_EmmS9_IS6_EEEEC1EOSD_>
  4036cb:	48 83 c4 28          	add    $0x28,%rsp
  4036cf:	5b                   	pop    %rbx
  4036d0:	5d                   	pop    %rbp
  4036d1:	c3                   	retq   

00000000004036d2 <_ZNSt6thread5_ImplISt12_Bind_simpleIFZ14run_experimentvEUlRN7barrier35centralized_sense_reversing_barrierEmmRSt6atomicIbEE_St17reference_wrapperIS3_EmmS9_IS6_EEEEC1EOSD_>:
    template<typename _Callable>
      struct _Impl : public _Impl_base
      {
	_Callable		_M_func;

	_Impl(_Callable&& __f) : _M_func(std::forward<_Callable>(__f))
  4036d2:	55                   	push   %rbp
  4036d3:	48 89 e5             	mov    %rsp,%rbp
  4036d6:	48 83 ec 10          	sub    $0x10,%rsp
  4036da:	48 89 7d f8          	mov    %rdi,-0x8(%rbp)
  4036de:	48 89 75 f0          	mov    %rsi,-0x10(%rbp)
  4036e2:	48 8b 45 f8          	mov    -0x8(%rbp),%rax
  4036e6:	48 89 c7             	mov    %rax,%rdi
  4036e9:	e8 58 7f 00 00       	callq  40b646 <_ZNSt6thread10_Impl_baseC1Ev>
  4036ee:	48 8b 45 f8          	mov    -0x8(%rbp),%rax
  4036f2:	48 c7 00 30 bf 40 00 	movq   $0x40bf30,(%rax)
  4036f9:	48 8b 45 f0          	mov    -0x10(%rbp),%rax
  4036fd:	48 89 c7             	mov    %rax,%rdi
  403700:	e8 9d f5 ff ff       	callq  402ca2 <_ZSt7forwardISt12_Bind_simpleIFZ14run_experimentvEUlRN7barrier35centralized_sense_reversing_barrierEmmRSt6atomicIbEE_St17reference_wrapperIS2_EmmS8_IS5_EEEEOT_RNSt16remove_referenceISD_E4typeE>
  403705:	48 8b 55 f8          	mov    -0x8(%rbp),%rdx
  403709:	48 83 c2 18          	add    $0x18,%rdx
  40370d:	48 89 c6             	mov    %rax,%rsi
  403710:	48 89 d7             	mov    %rdx,%rdi
  403713:	e8 c2 f4 ff ff       	callq  402bda <_ZNSt12_Bind_simpleIFZ14run_experimentvEUlRN7barrier35centralized_sense_reversing_barrierEmmRSt6atomicIbEE_St17reference_wrapperIS1_EmmS7_IS4_EEEC1EOSB_>
	{ }
  403718:	c9                   	leaveq 
  403719:	c3                   	retq   

000000000040371a <_ZNSt6thread5_ImplISt12_Bind_simpleIFZ14run_experimentvEUlRN7barrier35centralized_sense_reversing_barrierEmmRSt6atomicIbEE_St17reference_wrapperIS3_EmmS9_IS6_EEEED1Ev>:

      virtual void _M_run() = 0;
    };

    template<typename _Callable>
      struct _Impl : public _Impl_base
  40371a:	55                   	push   %rbp
  40371b:	48 89 e5             	mov    %rsp,%rbp
  40371e:	48 83 ec 10          	sub    $0x10,%rsp
  403722:	48 89 7d f8          	mov    %rdi,-0x8(%rbp)
  403726:	48 8b 45 f8          	mov    -0x8(%rbp),%rax
  40372a:	48 c7 00 30 bf 40 00 	movq   $0x40bf30,(%rax)
  403731:	48 8b 45 f8          	mov    -0x8(%rbp),%rax
  403735:	48 89 c7             	mov    %rax,%rdi
  403738:	e8 1b 06 00 00       	callq  403d58 <_ZNSt6thread10_Impl_baseD1Ev>
  40373d:	b8 00 00 00 00       	mov    $0x0,%eax
  403742:	85 c0                	test   %eax,%eax
  403744:	74 0c                	je     403752 <_ZNSt6thread5_ImplISt12_Bind_simpleIFZ14run_experimentvEUlRN7barrier35centralized_sense_reversing_barrierEmmRSt6atomicIbEE_St17reference_wrapperIS3_EmmS9_IS6_EEEED1Ev+0x38>
  403746:	48 8b 45 f8          	mov    -0x8(%rbp),%rax
  40374a:	48 89 c7             	mov    %rax,%rdi
  40374d:	e8 0e df ff ff       	callq  401660 <_ZdlPv@plt>
  403752:	c9                   	leaveq 
  403753:	c3                   	retq   

0000000000403754 <_ZNSt6thread5_ImplISt12_Bind_simpleIFZ14run_experimentvEUlRN7barrier35centralized_sense_reversing_barrierEmmRSt6atomicIbEE_St17reference_wrapperIS3_EmmS9_IS6_EEEED0Ev>:
  403754:	55                   	push   %rbp
  403755:	48 89 e5             	mov    %rsp,%rbp
  403758:	48 83 ec 10          	sub    $0x10,%rsp
  40375c:	48 89 7d f8          	mov    %rdi,-0x8(%rbp)
  403760:	48 8b 45 f8          	mov    -0x8(%rbp),%rax
  403764:	48 89 c7             	mov    %rax,%rdi
  403767:	e8 ae ff ff ff       	callq  40371a <_ZNSt6thread5_ImplISt12_Bind_simpleIFZ14run_experimentvEUlRN7barrier35centralized_sense_reversing_barrierEmmRSt6atomicIbEE_St17reference_wrapperIS3_EmmS9_IS6_EEEED1Ev>
  40376c:	48 8b 45 f8          	mov    -0x8(%rbp),%rax
  403770:	48 89 c7             	mov    %rax,%rdi
  403773:	e8 e8 de ff ff       	callq  401660 <_ZdlPv@plt>
  403778:	c9                   	leaveq 
  403779:	c3                   	retq   

000000000040377a <_Z41__static_initialization_and_destruction_0ii>:
  40377a:	55                   	push   %rbp
  40377b:	48 89 e5             	mov    %rsp,%rbp
  40377e:	48 83 ec 10          	sub    $0x10,%rsp
  403782:	89 7d fc             	mov    %edi,-0x4(%rbp)
  403785:	89 75 f8             	mov    %esi,-0x8(%rbp)
  403788:	83 7d fc 01          	cmpl   $0x1,-0x4(%rbp)
  40378c:	75 27                	jne    4037b5 <_Z41__static_initialization_and_destruction_0ii+0x3b>
  40378e:	81 7d f8 ff ff 00 00 	cmpl   $0xffff,-0x8(%rbp)
  403795:	75 1e                	jne    4037b5 <_Z41__static_initialization_and_destruction_0ii+0x3b>
  extern wostream wclog;	/// Linked to standard error (buffered)
#endif
  //@}

  // For construction of filebuffers for cout, cin, cerr, clog et. al.
  static ios_base::Init __ioinit;
  403797:	bf d9 43 61 00       	mov    $0x6143d9,%edi
  40379c:	e8 ef de ff ff       	callq  401690 <_ZNSt8ios_base4InitC1Ev@plt>
  4037a1:	ba c0 41 61 00       	mov    $0x6141c0,%edx
  4037a6:	be d9 43 61 00       	mov    $0x6143d9,%esi
  4037ab:	bf 10 17 40 00       	mov    $0x401710,%edi
  4037b0:	e8 1b df ff ff       	callq  4016d0 <__cxa_atexit@plt>
  4037b5:	c9                   	leaveq 
  4037b6:	c3                   	retq   
  4037b7:	90                   	nop

00000000004037b8 <_ZNSt23_Sp_counted_ptr_inplaceINSt6thread5_ImplISt12_Bind_simpleIFZ14run_experimentvEUlRN7barrier35centralized_sense_reversing_barrierEmmRSt6atomicIbEE_St17reference_wrapperIS4_EmmSA_IS7_EEEEESaISF_ELN9__gnu_cxx12_Lock_policyE2EED1Ev>:
	  // 2070.  allocate_shared should use allocator_traits<A>::construct
	  allocator_traits<_Alloc>::construct(__a, _M_impl._M_ptr,
	      std::forward<_Args>(__args)...); // might throw
	}

      ~_Sp_counted_ptr_inplace() noexcept { }
  4037b8:	55                   	push   %rbp
  4037b9:	48 89 e5             	mov    %rsp,%rbp
  4037bc:	48 83 ec 10          	sub    $0x10,%rsp
  4037c0:	48 89 7d f8          	mov    %rdi,-0x8(%rbp)
  4037c4:	48 8b 45 f8          	mov    -0x8(%rbp),%rax
  4037c8:	48 c7 00 f0 be 40 00 	movq   $0x40bef0,(%rax)
  4037cf:	48 8b 45 f8          	mov    -0x8(%rbp),%rax
  4037d3:	48 83 c0 10          	add    $0x10,%rax
  4037d7:	48 89 c7             	mov    %rax,%rdi
  4037da:	e8 13 fd ff ff       	callq  4034f2 <_ZNSt23_Sp_counted_ptr_inplaceINSt6thread5_ImplISt12_Bind_simpleIFZ14run_experimentvEUlRN7barrier35centralized_sense_reversing_barrierEmmRSt6atomicIbEE_St17reference_wrapperIS4_EmmSA_IS7_EEEEESaISF_ELN9__gnu_cxx12_Lock_policyE2EE5_ImplD1Ev>
  4037df:	48 8b 45 f8          	mov    -0x8(%rbp),%rax
  4037e3:	48 89 c7             	mov    %rax,%rdi
  4037e6:	e8 9b 52 00 00       	callq  408a86 <_ZNSt16_Sp_counted_baseILN9__gnu_cxx12_Lock_policyE2EED1Ev>
  4037eb:	b8 00 00 00 00       	mov    $0x0,%eax
  4037f0:	85 c0                	test   %eax,%eax
  4037f2:	74 0c                	je     403800 <_ZNSt23_Sp_counted_ptr_inplaceINSt6thread5_ImplISt12_Bind_simpleIFZ14run_experimentvEUlRN7barrier35centralized_sense_reversing_barrierEmmRSt6atomicIbEE_St17reference_wrapperIS4_EmmSA_IS7_EEEEESaISF_ELN9__gnu_cxx12_Lock_policyE2EED1Ev+0x48>
  4037f4:	48 8b 45 f8          	mov    -0x8(%rbp),%rax
  4037f8:	48 89 c7             	mov    %rax,%rdi
  4037fb:	e8 60 de ff ff       	callq  401660 <_ZdlPv@plt>
  403800:	c9                   	leaveq 
  403801:	c3                   	retq   

0000000000403802 <_ZNSt23_Sp_counted_ptr_inplaceINSt6thread5_ImplISt12_Bind_simpleIFZ14run_experimentvEUlRN7barrier35centralized_sense_reversing_barrierEmmRSt6atomicIbEE_St17reference_wrapperIS4_EmmSA_IS7_EEEEESaISF_ELN9__gnu_cxx12_Lock_policyE2EED0Ev>:
  403802:	55                   	push   %rbp
  403803:	48 89 e5             	mov    %rsp,%rbp
  403806:	48 83 ec 10          	sub    $0x10,%rsp
  40380a:	48 89 7d f8          	mov    %rdi,-0x8(%rbp)
  40380e:	48 8b 45 f8          	mov    -0x8(%rbp),%rax
  403812:	48 89 c7             	mov    %rax,%rdi
  403815:	e8 9e ff ff ff       	callq  4037b8 <_ZNSt23_Sp_counted_ptr_inplaceINSt6thread5_ImplISt12_Bind_simpleIFZ14run_experimentvEUlRN7barrier35centralized_sense_reversing_barrierEmmRSt6atomicIbEE_St17reference_wrapperIS4_EmmSA_IS7_EEEEESaISF_ELN9__gnu_cxx12_Lock_policyE2EED1Ev>
  40381a:	48 8b 45 f8          	mov    -0x8(%rbp),%rax
  40381e:	48 89 c7             	mov    %rax,%rdi
  403821:	e8 3a de ff ff       	callq  401660 <_ZdlPv@plt>
  403826:	c9                   	leaveq 
  403827:	c3                   	retq   

0000000000403828 <_ZNSt23_Sp_counted_ptr_inplaceINSt6thread5_ImplISt12_Bind_simpleIFZ14run_experimentvEUlRN7barrier35centralized_sense_reversing_barrierEmmRSt6atomicIbEE_St17reference_wrapperIS4_EmmSA_IS7_EEEEESaISF_ELN9__gnu_cxx12_Lock_policyE2EE10_M_disposeEv>:

      virtual void
      _M_dispose() noexcept
  403828:	55                   	push   %rbp
  403829:	48 89 e5             	mov    %rsp,%rbp
  40382c:	48 83 ec 10          	sub    $0x10,%rsp
  403830:	48 89 7d f8          	mov    %rdi,-0x8(%rbp)
      { allocator_traits<_Alloc>::destroy(_M_impl, _M_impl._M_ptr); }
  403834:	48 8b 45 f8          	mov    -0x8(%rbp),%rax
  403838:	48 8b 40 10          	mov    0x10(%rax),%rax
  40383c:	48 8b 55 f8          	mov    -0x8(%rbp),%rdx
  403840:	48 83 c2 10          	add    $0x10,%rdx
  403844:	48 89 c6             	mov    %rax,%rsi
  403847:	48 89 d7             	mov    %rdx,%rdi
  40384a:	e8 b3 00 00 00       	callq  403902 <_ZNSt16allocator_traitsISaINSt6thread5_ImplISt12_Bind_simpleIFZ14run_experimentvEUlRN7barrier35centralized_sense_reversing_barrierEmmRSt6atomicIbEE_St17reference_wrapperIS4_EmmSA_IS7_EEEEEEE7destroyISF_EEvRSG_PT_>
  40384f:	c9                   	leaveq 
  403850:	c3                   	retq   
  403851:	90                   	nop

0000000000403852 <_ZNSt23_Sp_counted_ptr_inplaceINSt6thread5_ImplISt12_Bind_simpleIFZ14run_experimentvEUlRN7barrier35centralized_sense_reversing_barrierEmmRSt6atomicIbEE_St17reference_wrapperIS4_EmmSA_IS7_EEEEESaISF_ELN9__gnu_cxx12_Lock_policyE2EE10_M_destroyEv>:

      // Override because the allocator needs to know the dynamic type
      virtual void
      _M_destroy() noexcept
  403852:	55                   	push   %rbp
  403853:	48 89 e5             	mov    %rsp,%rbp
  403856:	48 83 ec 20          	sub    $0x20,%rsp
  40385a:	48 89 7d e8          	mov    %rdi,-0x18(%rbp)
      {
	typedef typename allocator_traits<_Alloc>::template
	  rebind_traits<_Sp_counted_ptr_inplace> _Alloc_traits;
	typename _Alloc_traits::allocator_type __a(_M_impl);
  40385e:	48 8b 45 e8          	mov    -0x18(%rbp),%rax
  403862:	48 8d 50 10          	lea    0x10(%rax),%rdx
  403866:	48 8d 45 ff          	lea    -0x1(%rbp),%rax
  40386a:	48 89 d6             	mov    %rdx,%rsi
  40386d:	48 89 c7             	mov    %rax,%rdi
  403870:	e8 d5 f9 ff ff       	callq  40324a <_ZNSaISt23_Sp_counted_ptr_inplaceINSt6thread5_ImplISt12_Bind_simpleIFZ14run_experimentvEUlRN7barrier35centralized_sense_reversing_barrierEmmRSt6atomicIbEE_St17reference_wrapperIS4_EmmSA_IS7_EEEEESaISF_ELN9__gnu_cxx12_Lock_policyE2EEEC1ISF_EERKSaIT_E>
	_Alloc_traits::destroy(__a, this);
  403875:	48 8b 55 e8          	mov    -0x18(%rbp),%rdx
  403879:	48 8d 45 ff          	lea    -0x1(%rbp),%rax
  40387d:	48 89 d6             	mov    %rdx,%rsi
  403880:	48 89 c7             	mov    %rax,%rdi
  403883:	e8 9f 00 00 00       	callq  403927 <_ZNSt16allocator_traitsISaISt23_Sp_counted_ptr_inplaceINSt6thread5_ImplISt12_Bind_simpleIFZ14run_experimentvEUlRN7barrier35centralized_sense_reversing_barrierEmmRSt6atomicIbEE_St17reference_wrapperIS5_EmmSB_IS8_EEEEESaISG_ELN9__gnu_cxx12_Lock_policyE2EEEE7destroyISK_EEvRSL_PT_>
	_Alloc_traits::deallocate(__a, this, 1);
  403888:	48 8b 4d e8          	mov    -0x18(%rbp),%rcx
  40388c:	48 8d 45 ff          	lea    -0x1(%rbp),%rax
  403890:	ba 01 00 00 00       	mov    $0x1,%edx
  403895:	48 89 ce             	mov    %rcx,%rsi
  403898:	48 89 c7             	mov    %rax,%rdi
  40389b:	e8 5d fa ff ff       	callq  4032fd <_ZNSt16allocator_traitsISaISt23_Sp_counted_ptr_inplaceINSt6thread5_ImplISt12_Bind_simpleIFZ14run_experimentvEUlRN7barrier35centralized_sense_reversing_barrierEmmRSt6atomicIbEE_St17reference_wrapperIS5_EmmSB_IS8_EEEEESaISG_ELN9__gnu_cxx12_Lock_policyE2EEEE10deallocateERSL_PSK_m>
  4038a0:	48 8d 45 ff          	lea    -0x1(%rbp),%rax
  4038a4:	48 89 c7             	mov    %rax,%rdi
  4038a7:	e8 bc f9 ff ff       	callq  403268 <_ZNSaISt23_Sp_counted_ptr_inplaceINSt6thread5_ImplISt12_Bind_simpleIFZ14run_experimentvEUlRN7barrier35centralized_sense_reversing_barrierEmmRSt6atomicIbEE_St17reference_wrapperIS4_EmmSA_IS7_EEEEESaISF_ELN9__gnu_cxx12_Lock_policyE2EEED1Ev>
      }
  4038ac:	c9                   	leaveq 
  4038ad:	c3                   	retq   

00000000004038ae <_ZNSt23_Sp_counted_ptr_inplaceINSt6thread5_ImplISt12_Bind_simpleIFZ14run_experimentvEUlRN7barrier35centralized_sense_reversing_barrierEmmRSt6atomicIbEE_St17reference_wrapperIS4_EmmSA_IS7_EEEEESaISF_ELN9__gnu_cxx12_Lock_policyE2EE14_M_get_deleterERKSt9type_info>:

      // Sneaky trick so __shared_ptr can get the managed pointer
      virtual void*
      _M_get_deleter(const std::type_info& __ti) noexcept
  4038ae:	55                   	push   %rbp
  4038af:	48 89 e5             	mov    %rsp,%rbp
  4038b2:	48 83 ec 10          	sub    $0x10,%rsp
  4038b6:	48 89 7d f8          	mov    %rdi,-0x8(%rbp)
  4038ba:	48 89 75 f0          	mov    %rsi,-0x10(%rbp)
      {
#ifdef __GXX_RTTI
	return __ti == typeid(_Sp_make_shared_tag)
  4038be:	48 8b 45 f0          	mov    -0x10(%rbp),%rax
  4038c2:	be d0 c3 40 00       	mov    $0x40c3d0,%esi
  4038c7:	48 89 c7             	mov    %rax,%rdi
  4038ca:	e8 f1 02 00 00       	callq  403bc0 <_ZNKSt9type_infoeqERKS_>
	       ? static_cast<void*>(&_M_storage)
	       : 0;
  4038cf:	84 c0                	test   %al,%al
  4038d1:	74 0a                	je     4038dd <_ZNSt23_Sp_counted_ptr_inplaceINSt6thread5_ImplISt12_Bind_simpleIFZ14run_experimentvEUlRN7barrier35centralized_sense_reversing_barrierEmmRSt6atomicIbEE_St17reference_wrapperIS4_EmmSA_IS7_EEEEESaISF_ELN9__gnu_cxx12_Lock_policyE2EE14_M_get_deleterERKSt9type_info+0x2f>
  4038d3:	48 8b 45 f8          	mov    -0x8(%rbp),%rax
  4038d7:	48 83 c0 18          	add    $0x18,%rax
  4038db:	eb 05                	jmp    4038e2 <_ZNSt23_Sp_counted_ptr_inplaceINSt6thread5_ImplISt12_Bind_simpleIFZ14run_experimentvEUlRN7barrier35centralized_sense_reversing_barrierEmmRSt6atomicIbEE_St17reference_wrapperIS4_EmmSA_IS7_EEEEESaISF_ELN9__gnu_cxx12_Lock_policyE2EE14_M_get_deleterERKSt9type_info+0x34>
  4038dd:	b8 00 00 00 00       	mov    $0x0,%eax
#else
        return 0;
#endif
      }
  4038e2:	c9                   	leaveq 
  4038e3:	c3                   	retq   

00000000004038e4 <_ZNSt6thread5_ImplISt12_Bind_simpleIFZ14run_experimentvEUlRN7barrier35centralized_sense_reversing_barrierEmmRSt6atomicIbEE_St17reference_wrapperIS3_EmmS9_IS6_EEEE6_M_runEv>:

	_Impl(_Callable&& __f) : _M_func(std::forward<_Callable>(__f))
	{ }

	void
	_M_run() { _M_func(); }
  4038e4:	55                   	push   %rbp
  4038e5:	48 89 e5             	mov    %rsp,%rbp
  4038e8:	48 83 ec 10          	sub    $0x10,%rsp
  4038ec:	48 89 7d f8          	mov    %rdi,-0x8(%rbp)
  4038f0:	48 8b 45 f8          	mov    -0x8(%rbp),%rax
  4038f4:	48 83 c0 18          	add    $0x18,%rax
  4038f8:	48 89 c7             	mov    %rax,%rdi
  4038fb:	e8 4c 00 00 00       	callq  40394c <_ZNSt12_Bind_simpleIFZ14run_experimentvEUlRN7barrier35centralized_sense_reversing_barrierEmmRSt6atomicIbEE_St17reference_wrapperIS1_EmmS7_IS4_EEEclEv>
  403900:	c9                   	leaveq 
  403901:	c3                   	retq   

0000000000403902 <_ZNSt16allocator_traitsISaINSt6thread5_ImplISt12_Bind_simpleIFZ14run_experimentvEUlRN7barrier35centralized_sense_reversing_barrierEmmRSt6atomicIbEE_St17reference_wrapperIS4_EmmSA_IS7_EEEEEEE7destroyISF_EEvRSG_PT_>:
       *
       *  Calls @c __a.destroy(__p) if that expression is well-formed,
       *  otherwise calls @c __p->~_Tp()
      */
      template <class _Tp>
	static void destroy(_Alloc& __a, _Tp* __p)
  403902:	55                   	push   %rbp
  403903:	48 89 e5             	mov    %rsp,%rbp
  403906:	48 83 ec 10          	sub    $0x10,%rsp
  40390a:	48 89 7d f8          	mov    %rdi,-0x8(%rbp)
  40390e:	48 89 75 f0          	mov    %rsi,-0x10(%rbp)
	{ _S_destroy(__a, __p); }
  403912:	48 8b 55 f0          	mov    -0x10(%rbp),%rdx
  403916:	48 8b 45 f8          	mov    -0x8(%rbp),%rax
  40391a:	48 89 d6             	mov    %rdx,%rsi
  40391d:	48 89 c7             	mov    %rax,%rdi
  403920:	e8 44 00 00 00       	callq  403969 <_ZNSt16allocator_traitsISaINSt6thread5_ImplISt12_Bind_simpleIFZ14run_experimentvEUlRN7barrier35centralized_sense_reversing_barrierEmmRSt6atomicIbEE_St17reference_wrapperIS4_EmmSA_IS7_EEEEEEE10_S_destroyISF_EENSt9enable_ifIXsrNSH_16__destroy_helperIT_EE5valueEvE4typeERSG_PSL_>
  403925:	c9                   	leaveq 
  403926:	c3                   	retq   

0000000000403927 <_ZNSt16allocator_traitsISaISt23_Sp_counted_ptr_inplaceINSt6thread5_ImplISt12_Bind_simpleIFZ14run_experimentvEUlRN7barrier35centralized_sense_reversing_barrierEmmRSt6atomicIbEE_St17reference_wrapperIS5_EmmSB_IS8_EEEEESaISG_ELN9__gnu_cxx12_Lock_policyE2EEEE7destroyISK_EEvRSL_PT_>:
       *
       *  Calls @c __a.destroy(__p) if that expression is well-formed,
       *  otherwise calls @c __p->~_Tp()
      */
      template <class _Tp>
	static void destroy(_Alloc& __a, _Tp* __p)
  403927:	55                   	push   %rbp
  403928:	48 89 e5             	mov    %rsp,%rbp
  40392b:	48 83 ec 10          	sub    $0x10,%rsp
  40392f:	48 89 7d f8          	mov    %rdi,-0x8(%rbp)
  403933:	48 89 75 f0          	mov    %rsi,-0x10(%rbp)
	{ _S_destroy(__a, __p); }
  403937:	48 8b 55 f0          	mov    -0x10(%rbp),%rdx
  40393b:	48 8b 45 f8          	mov    -0x8(%rbp),%rax
  40393f:	48 89 d6             	mov    %rdx,%rsi
  403942:	48 89 c7             	mov    %rax,%rdi
  403945:	e8 44 00 00 00       	callq  40398e <_ZNSt16allocator_traitsISaISt23_Sp_counted_ptr_inplaceINSt6thread5_ImplISt12_Bind_simpleIFZ14run_experimentvEUlRN7barrier35centralized_sense_reversing_barrierEmmRSt6atomicIbEE_St17reference_wrapperIS5_EmmSB_IS8_EEEEESaISG_ELN9__gnu_cxx12_Lock_policyE2EEEE10_S_destroyISK_EENSt9enable_ifIXsrNSM_16__destroy_helperIT_EE5valueEvE4typeERSL_PSQ_>
  40394a:	c9                   	leaveq 
  40394b:	c3                   	retq   

000000000040394c <_ZNSt12_Bind_simpleIFZ14run_experimentvEUlRN7barrier35centralized_sense_reversing_barrierEmmRSt6atomicIbEE_St17reference_wrapperIS1_EmmS7_IS4_EEEclEv>:

      _Bind_simple(const _Bind_simple&) = default;
      _Bind_simple(_Bind_simple&&) = default;

      result_type
      operator()()
  40394c:	55                   	push   %rbp
  40394d:	48 89 e5             	mov    %rsp,%rbp
  403950:	48 83 ec 20          	sub    $0x20,%rsp
  403954:	48 89 7d e8          	mov    %rdi,-0x18(%rbp)
      {
        typedef typename _Build_index_tuple<sizeof...(_Args)>::__type _Indices;
        return _M_invoke(_Indices());
  403958:	48 8b 45 e8          	mov    -0x18(%rbp),%rax
  40395c:	88 14 24             	mov    %dl,(%rsp)
  40395f:	48 89 c7             	mov    %rax,%rdi
  403962:	e8 e9 00 00 00       	callq  403a50 <_ZNSt12_Bind_simpleIFZ14run_experimentvEUlRN7barrier35centralized_sense_reversing_barrierEmmRSt6atomicIbEE_St17reference_wrapperIS1_EmmS7_IS4_EEE9_M_invokeIILm0ELm1ELm2ELm3EEEEvSt12_Index_tupleIIXspT_EEE>
      }
  403967:	c9                   	leaveq 
  403968:	c3                   	retq   

0000000000403969 <_ZNSt16allocator_traitsISaINSt6thread5_ImplISt12_Bind_simpleIFZ14run_experimentvEUlRN7barrier35centralized_sense_reversing_barrierEmmRSt6atomicIbEE_St17reference_wrapperIS4_EmmSA_IS7_EEEEEEE10_S_destroyISF_EENSt9enable_ifIXsrNSH_16__destroy_helperIT_EE5valueEvE4typeERSG_PSL_>:
	  static const bool value = type::value;
	};

      template<typename _Tp>
	static typename enable_if<__destroy_helper<_Tp>::value, void>::type
       	_S_destroy(_Alloc& __a, _Tp* __p)
  403969:	55                   	push   %rbp
  40396a:	48 89 e5             	mov    %rsp,%rbp
  40396d:	48 83 ec 10          	sub    $0x10,%rsp
  403971:	48 89 7d f8          	mov    %rdi,-0x8(%rbp)
  403975:	48 89 75 f0          	mov    %rsi,-0x10(%rbp)
	{ __a.destroy(__p); }
  403979:	48 8b 55 f0          	mov    -0x10(%rbp),%rdx
  40397d:	48 8b 45 f8          	mov    -0x8(%rbp),%rax
  403981:	48 89 d6             	mov    %rdx,%rsi
  403984:	48 89 c7             	mov    %rax,%rdi
  403987:	e8 78 01 00 00       	callq  403b04 <_ZN9__gnu_cxx13new_allocatorINSt6thread5_ImplISt12_Bind_simpleIFZ14run_experimentvEUlRN7barrier35centralized_sense_reversing_barrierEmmRSt6atomicIbEE_St17reference_wrapperIS5_EmmSB_IS8_EEEEEE7destroyISG_EEvPT_>
  40398c:	c9                   	leaveq 
  40398d:	c3                   	retq   

000000000040398e <_ZNSt16allocator_traitsISaISt23_Sp_counted_ptr_inplaceINSt6thread5_ImplISt12_Bind_simpleIFZ14run_experimentvEUlRN7barrier35centralized_sense_reversing_barrierEmmRSt6atomicIbEE_St17reference_wrapperIS5_EmmSB_IS8_EEEEESaISG_ELN9__gnu_cxx12_Lock_policyE2EEEE10_S_destroyISK_EENSt9enable_ifIXsrNSM_16__destroy_helperIT_EE5valueEvE4typeERSL_PSQ_>:
	  static const bool value = type::value;
	};

      template<typename _Tp>
	static typename enable_if<__destroy_helper<_Tp>::value, void>::type
       	_S_destroy(_Alloc& __a, _Tp* __p)
  40398e:	55                   	push   %rbp
  40398f:	48 89 e5             	mov    %rsp,%rbp
  403992:	48 83 ec 10          	sub    $0x10,%rsp
  403996:	48 89 7d f8          	mov    %rdi,-0x8(%rbp)
  40399a:	48 89 75 f0          	mov    %rsi,-0x10(%rbp)
	{ __a.destroy(__p); }
  40399e:	48 8b 55 f0          	mov    -0x10(%rbp),%rdx
  4039a2:	48 8b 45 f8          	mov    -0x8(%rbp),%rax
  4039a6:	48 89 d6             	mov    %rdx,%rsi
  4039a9:	48 89 c7             	mov    %rax,%rdi
  4039ac:	e8 79 01 00 00       	callq  403b2a <_ZN9__gnu_cxx13new_allocatorISt23_Sp_counted_ptr_inplaceINSt6thread5_ImplISt12_Bind_simpleIFZ14run_experimentvEUlRN7barrier35centralized_sense_reversing_barrierEmmRSt6atomicIbEE_St17reference_wrapperIS6_EmmSC_IS9_EEEEESaISH_ELNS_12_Lock_policyE2EEE7destroyISK_EEvPT_>
  4039b1:	c9                   	leaveq 
  4039b2:	c3                   	retq   

00000000004039b3 <_ZSt12__get_helperILm0EZ14run_experimentvEUlRN7barrier35centralized_sense_reversing_barrierEmmRSt6atomicIbEE_ISt17reference_wrapperIS1_EmmS7_IS4_EEENSt9__add_refIT0_E4typeERSt11_Tuple_implIXT_EISB_DpT1_EE>:
    struct tuple_size<tuple<_Elements...>>
    : public integral_constant<std::size_t, sizeof...(_Elements)> { };

  template<std::size_t __i, typename _Head, typename... _Tail>
    constexpr typename __add_ref<_Head>::type
    __get_helper(_Tuple_impl<__i, _Head, _Tail...>& __t) noexcept
  4039b3:	55                   	push   %rbp
  4039b4:	48 89 e5             	mov    %rsp,%rbp
  4039b7:	48 83 ec 08          	sub    $0x8,%rsp
  4039bb:	48 89 7d f8          	mov    %rdi,-0x8(%rbp)
    { return _Tuple_impl<__i, _Head, _Tail...>::_M_head(__t); }
  4039bf:	48 8b 45 f8          	mov    -0x8(%rbp),%rax
  4039c3:	48 89 c7             	mov    %rax,%rdi
  4039c6:	e8 45 f1 ff ff       	callq  402b10 <_ZNSt11_Tuple_implILm0EIZ14run_experimentvEUlRN7barrier35centralized_sense_reversing_barrierEmmRSt6atomicIbEE_St17reference_wrapperIS1_EmmS7_IS4_EEE7_M_headERSA_>
  4039cb:	c9                   	leaveq 
  4039cc:	c3                   	retq   

00000000004039cd <_ZSt3getILm0EIZ14run_experimentvEUlRN7barrier35centralized_sense_reversing_barrierEmmRSt6atomicIbEE_St17reference_wrapperIS1_EmmS7_IS4_EEENSt9__add_refINSt13tuple_elementIXT_ESt5tupleIIDpT0_EEE4typeEE4typeERSF_>:
  // original type.
  template<std::size_t __i, typename... _Elements>
    constexpr typename __add_ref<
                      typename tuple_element<__i, tuple<_Elements...>>::type
                    >::type
    get(tuple<_Elements...>& __t) noexcept
  4039cd:	55                   	push   %rbp
  4039ce:	48 89 e5             	mov    %rsp,%rbp
  4039d1:	48 83 ec 08          	sub    $0x8,%rsp
  4039d5:	48 89 7d f8          	mov    %rdi,-0x8(%rbp)
    { return __get_helper<__i>(__t); }
  4039d9:	48 8b 45 f8          	mov    -0x8(%rbp),%rax
  4039dd:	48 89 c7             	mov    %rax,%rdi
  4039e0:	e8 ce ff ff ff       	callq  4039b3 <_ZSt12__get_helperILm0EZ14run_experimentvEUlRN7barrier35centralized_sense_reversing_barrierEmmRSt6atomicIbEE_ISt17reference_wrapperIS1_EmmS7_IS4_EEENSt9__add_refIT0_E4typeERSt11_Tuple_implIXT_EISB_DpT1_EE>
  4039e5:	c9                   	leaveq 
  4039e6:	c3                   	retq   

00000000004039e7 <_ZSt3getILm1EIZ14run_experimentvEUlRN7barrier35centralized_sense_reversing_barrierEmmRSt6atomicIbEE_St17reference_wrapperIS1_EmmS7_IS4_EEENSt9__add_refINSt13tuple_elementIXT_ESt5tupleIIDpT0_EEE4typeEE4typeERSF_>:
  // original type.
  template<std::size_t __i, typename... _Elements>
    constexpr typename __add_ref<
                      typename tuple_element<__i, tuple<_Elements...>>::type
                    >::type
    get(tuple<_Elements...>& __t) noexcept
  4039e7:	55                   	push   %rbp
  4039e8:	48 89 e5             	mov    %rsp,%rbp
  4039eb:	48 83 ec 10          	sub    $0x10,%rsp
  4039ef:	48 89 7d f8          	mov    %rdi,-0x8(%rbp)
    { return __get_helper<__i>(__t); }
  4039f3:	48 8b 45 f8          	mov    -0x8(%rbp),%rax
  4039f7:	48 89 c7             	mov    %rax,%rdi
  4039fa:	e8 32 7f 00 00       	callq  40b931 <_ZSt12__get_helperILm1ESt17reference_wrapperIN7barrier35centralized_sense_reversing_barrierEEImmS0_ISt6atomicIbEEEENSt9__add_refIT0_E4typeERSt11_Tuple_implIXT_EIS8_DpT1_EE>
  4039ff:	c9                   	leaveq 
  403a00:	c3                   	retq   

0000000000403a01 <_ZSt3getILm2EIZ14run_experimentvEUlRN7barrier35centralized_sense_reversing_barrierEmmRSt6atomicIbEE_St17reference_wrapperIS1_EmmS7_IS4_EEENSt9__add_refINSt13tuple_elementIXT_ESt5tupleIIDpT0_EEE4typeEE4typeERSF_>:
  // original type.
  template<std::size_t __i, typename... _Elements>
    constexpr typename __add_ref<
                      typename tuple_element<__i, tuple<_Elements...>>::type
                    >::type
    get(tuple<_Elements...>& __t) noexcept
  403a01:	55                   	push   %rbp
  403a02:	48 89 e5             	mov    %rsp,%rbp
  403a05:	48 83 ec 10          	sub    $0x10,%rsp
  403a09:	48 89 7d f8          	mov    %rdi,-0x8(%rbp)
    { return __get_helper<__i>(__t); }
  403a0d:	48 8b 45 f8          	mov    -0x8(%rbp),%rax
  403a11:	48 89 c7             	mov    %rax,%rdi
  403a14:	e8 32 7f 00 00       	callq  40b94b <_ZSt12__get_helperILm2EmImSt17reference_wrapperISt6atomicIbEEEENSt9__add_refIT0_E4typeERSt11_Tuple_implIXT_EIS5_DpT1_EE>
  403a19:	c9                   	leaveq 
  403a1a:	c3                   	retq   

0000000000403a1b <_ZSt3getILm3EIZ14run_experimentvEUlRN7barrier35centralized_sense_reversing_barrierEmmRSt6atomicIbEE_St17reference_wrapperIS1_EmmS7_IS4_EEENSt9__add_refINSt13tuple_elementIXT_ESt5tupleIIDpT0_EEE4typeEE4typeERSF_>:
  // original type.
  template<std::size_t __i, typename... _Elements>
    constexpr typename __add_ref<
                      typename tuple_element<__i, tuple<_Elements...>>::type
                    >::type
    get(tuple<_Elements...>& __t) noexcept
  403a1b:	55                   	push   %rbp
  403a1c:	48 89 e5             	mov    %rsp,%rbp
  403a1f:	48 83 ec 10          	sub    $0x10,%rsp
  403a23:	48 89 7d f8          	mov    %rdi,-0x8(%rbp)
    { return __get_helper<__i>(__t); }
  403a27:	48 8b 45 f8          	mov    -0x8(%rbp),%rax
  403a2b:	48 89 c7             	mov    %rax,%rdi
  403a2e:	e8 32 7f 00 00       	callq  40b965 <_ZSt12__get_helperILm3EmISt17reference_wrapperISt6atomicIbEEEENSt9__add_refIT0_E4typeERSt11_Tuple_implIXT_EIS5_DpT1_EE>
  403a33:	c9                   	leaveq 
  403a34:	c3                   	retq   

0000000000403a35 <_ZSt3getILm4EIZ14run_experimentvEUlRN7barrier35centralized_sense_reversing_barrierEmmRSt6atomicIbEE_St17reference_wrapperIS1_EmmS7_IS4_EEENSt9__add_refINSt13tuple_elementIXT_ESt5tupleIIDpT0_EEE4typeEE4typeERSF_>:
  // original type.
  template<std::size_t __i, typename... _Elements>
    constexpr typename __add_ref<
                      typename tuple_element<__i, tuple<_Elements...>>::type
                    >::type
    get(tuple<_Elements...>& __t) noexcept
  403a35:	55                   	push   %rbp
  403a36:	48 89 e5             	mov    %rsp,%rbp
  403a39:	48 83 ec 10          	sub    $0x10,%rsp
  403a3d:	48 89 7d f8          	mov    %rdi,-0x8(%rbp)
    { return __get_helper<__i>(__t); }
  403a41:	48 8b 45 f8          	mov    -0x8(%rbp),%rax
  403a45:	48 89 c7             	mov    %rax,%rdi
  403a48:	e8 32 7f 00 00       	callq  40b97f <_ZSt12__get_helperILm4ESt17reference_wrapperISt6atomicIbEEIEENSt9__add_refIT0_E4typeERSt11_Tuple_implIXT_EIS5_DpT1_EE>
  403a4d:	c9                   	leaveq 
  403a4e:	c3                   	retq   
  403a4f:	90                   	nop

0000000000403a50 <_ZNSt12_Bind_simpleIFZ14run_experimentvEUlRN7barrier35centralized_sense_reversing_barrierEmmRSt6atomicIbEE_St17reference_wrapperIS1_EmmS7_IS4_EEE9_M_invokeIILm0ELm1ELm2ELm3EEEEvSt12_Index_tupleIIXspT_EEE>:

    private:

      template<std::size_t... _Indices>
        typename result_of<_Callable(_Args...)>::type
        _M_invoke(_Index_tuple<_Indices...>)
  403a50:	55                   	push   %rbp
  403a51:	48 89 e5             	mov    %rsp,%rbp
  403a54:	41 56                	push   %r14
  403a56:	41 55                	push   %r13
  403a58:	41 54                	push   %r12
  403a5a:	53                   	push   %rbx
  403a5b:	48 83 ec 10          	sub    $0x10,%rsp
  403a5f:	48 89 7d d8          	mov    %rdi,-0x28(%rbp)
        {
	  // std::bind always forwards bound arguments as lvalues,
	  // but this type can call functions which only accept rvalues.
          return std::forward<_Callable>(std::get<0>(_M_bound))(
              std::forward<_Args>(std::get<_Indices+1>(_M_bound))...);
  403a63:	48 8b 45 d8          	mov    -0x28(%rbp),%rax
  403a67:	48 89 c7             	mov    %rax,%rdi
  403a6a:	e8 c6 ff ff ff       	callq  403a35 <_ZSt3getILm4EIZ14run_experimentvEUlRN7barrier35centralized_sense_reversing_barrierEmmRSt6atomicIbEE_St17reference_wrapperIS1_EmmS7_IS4_EEENSt9__add_refINSt13tuple_elementIXT_ESt5tupleIIDpT0_EEE4typeEE4typeERSF_>
  403a6f:	48 89 c7             	mov    %rax,%rdi
  403a72:	e8 a0 1e 00 00       	callq  405917 <_ZSt7forwardISt17reference_wrapperISt6atomicIbEEEOT_RNSt16remove_referenceIS4_E4typeE>
        typename result_of<_Callable(_Args...)>::type
        _M_invoke(_Index_tuple<_Indices...>)
        {
	  // std::bind always forwards bound arguments as lvalues,
	  // but this type can call functions which only accept rvalues.
          return std::forward<_Callable>(std::get<0>(_M_bound))(
  403a77:	48 89 c7             	mov    %rax,%rdi
  403a7a:	e8 2b 80 00 00       	callq  40baaa <_ZNKSt17reference_wrapperISt6atomicIbEEcvRS1_Ev>
  403a7f:	49 89 c6             	mov    %rax,%r14
              std::forward<_Args>(std::get<_Indices+1>(_M_bound))...);
  403a82:	48 8b 45 d8          	mov    -0x28(%rbp),%rax
  403a86:	48 89 c7             	mov    %rax,%rdi
  403a89:	e8 8d ff ff ff       	callq  403a1b <_ZSt3getILm3EIZ14run_experimentvEUlRN7barrier35centralized_sense_reversing_barrierEmmRSt6atomicIbEE_St17reference_wrapperIS1_EmmS7_IS4_EEENSt9__add_refINSt13tuple_elementIXT_ESt5tupleIIDpT0_EEE4typeEE4typeERSF_>
  403a8e:	48 89 c7             	mov    %rax,%rdi
  403a91:	e8 99 35 00 00       	callq  40702f <_ZSt7forwardImEOT_RNSt16remove_referenceIS0_E4typeE>
        typename result_of<_Callable(_Args...)>::type
        _M_invoke(_Index_tuple<_Indices...>)
        {
	  // std::bind always forwards bound arguments as lvalues,
	  // but this type can call functions which only accept rvalues.
          return std::forward<_Callable>(std::get<0>(_M_bound))(
  403a96:	4c 8b 28             	mov    (%rax),%r13
              std::forward<_Args>(std::get<_Indices+1>(_M_bound))...);
  403a99:	48 8b 45 d8          	mov    -0x28(%rbp),%rax
  403a9d:	48 89 c7             	mov    %rax,%rdi
  403aa0:	e8 5c ff ff ff       	callq  403a01 <_ZSt3getILm2EIZ14run_experimentvEUlRN7barrier35centralized_sense_reversing_barrierEmmRSt6atomicIbEE_St17reference_wrapperIS1_EmmS7_IS4_EEENSt9__add_refINSt13tuple_elementIXT_ESt5tupleIIDpT0_EEE4typeEE4typeERSF_>
  403aa5:	48 89 c7             	mov    %rax,%rdi
  403aa8:	e8 82 35 00 00       	callq  40702f <_ZSt7forwardImEOT_RNSt16remove_referenceIS0_E4typeE>
        typename result_of<_Callable(_Args...)>::type
        _M_invoke(_Index_tuple<_Indices...>)
        {
	  // std::bind always forwards bound arguments as lvalues,
	  // but this type can call functions which only accept rvalues.
          return std::forward<_Callable>(std::get<0>(_M_bound))(
  403aad:	4c 8b 20             	mov    (%rax),%r12
              std::forward<_Args>(std::get<_Indices+1>(_M_bound))...);
  403ab0:	48 8b 45 d8          	mov    -0x28(%rbp),%rax
  403ab4:	48 89 c7             	mov    %rax,%rdi
  403ab7:	e8 2b ff ff ff       	callq  4039e7 <_ZSt3getILm1EIZ14run_experimentvEUlRN7barrier35centralized_sense_reversing_barrierEmmRSt6atomicIbEE_St17reference_wrapperIS1_EmmS7_IS4_EEENSt9__add_refINSt13tuple_elementIXT_ESt5tupleIIDpT0_EEE4typeEE4typeERSF_>
  403abc:	48 89 c7             	mov    %rax,%rdi
  403abf:	e8 29 1e 00 00       	callq  4058ed <_ZSt7forwardISt17reference_wrapperIN7barrier35centralized_sense_reversing_barrierEEEOT_RNSt16remove_referenceIS4_E4typeE>
        typename result_of<_Callable(_Args...)>::type
        _M_invoke(_Index_tuple<_Indices...>)
        {
	  // std::bind always forwards bound arguments as lvalues,
	  // but this type can call functions which only accept rvalues.
          return std::forward<_Callable>(std::get<0>(_M_bound))(
  403ac4:	48 89 c7             	mov    %rax,%rdi
  403ac7:	e8 c4 7f 00 00       	callq  40ba90 <_ZNKSt17reference_wrapperIN7barrier35centralized_sense_reversing_barrierEEcvRS1_Ev>
  403acc:	48 89 c3             	mov    %rax,%rbx
  403acf:	48 8b 45 d8          	mov    -0x28(%rbp),%rax
  403ad3:	48 89 c7             	mov    %rax,%rdi
  403ad6:	e8 f2 fe ff ff       	callq  4039cd <_ZSt3getILm0EIZ14run_experimentvEUlRN7barrier35centralized_sense_reversing_barrierEmmRSt6atomicIbEE_St17reference_wrapperIS1_EmmS7_IS4_EEENSt9__add_refINSt13tuple_elementIXT_ESt5tupleIIDpT0_EEE4typeEE4typeERSF_>
  403adb:	48 89 c7             	mov    %rax,%rdi
  403ade:	e8 47 f0 ff ff       	callq  402b2a <_ZSt7forwardIZ14run_experimentvEUlRN7barrier35centralized_sense_reversing_barrierEmmRSt6atomicIbEE_EOT_RNSt16remove_referenceIS7_E4typeE>
              std::forward<_Args>(std::get<_Indices+1>(_M_bound))...);
  403ae3:	4d 89 f0             	mov    %r14,%r8
  403ae6:	4c 89 e9             	mov    %r13,%rcx
  403ae9:	4c 89 e2             	mov    %r12,%rdx
  403aec:	48 89 de             	mov    %rbx,%rsi
  403aef:	48 89 c7             	mov    %rax,%rdi
  403af2:	e8 6d e3 ff ff       	callq  401e64 <_ZZ14run_experimentvENKUlRN7barrier35centralized_sense_reversing_barrierEmmRSt6atomicIbEE_clES1_mmS4_>
        }
  403af7:	48 83 c4 10          	add    $0x10,%rsp
  403afb:	5b                   	pop    %rbx
  403afc:	41 5c                	pop    %r12
  403afe:	41 5d                	pop    %r13
  403b00:	41 5e                	pop    %r14
  403b02:	5d                   	pop    %rbp
  403b03:	c3                   	retq   

0000000000403b04 <_ZN9__gnu_cxx13new_allocatorINSt6thread5_ImplISt12_Bind_simpleIFZ14run_experimentvEUlRN7barrier35centralized_sense_reversing_barrierEmmRSt6atomicIbEE_St17reference_wrapperIS5_EmmSB_IS8_EEEEEE7destroyISG_EEvPT_>:

      template<typename _Up>
        void 
        destroy(_Up* __p) { __p->~_Up(); }
  403b04:	55                   	push   %rbp
  403b05:	48 89 e5             	mov    %rsp,%rbp
  403b08:	48 83 ec 10          	sub    $0x10,%rsp
  403b0c:	48 89 7d f8          	mov    %rdi,-0x8(%rbp)
  403b10:	48 89 75 f0          	mov    %rsi,-0x10(%rbp)
  403b14:	48 8b 45 f0          	mov    -0x10(%rbp),%rax
  403b18:	48 8b 00             	mov    (%rax),%rax
  403b1b:	48 8b 00             	mov    (%rax),%rax
  403b1e:	48 8b 55 f0          	mov    -0x10(%rbp),%rdx
  403b22:	48 89 d7             	mov    %rdx,%rdi
  403b25:	ff d0                	callq  *%rax
  403b27:	c9                   	leaveq 
  403b28:	c3                   	retq   
  403b29:	90                   	nop

0000000000403b2a <_ZN9__gnu_cxx13new_allocatorISt23_Sp_counted_ptr_inplaceINSt6thread5_ImplISt12_Bind_simpleIFZ14run_experimentvEUlRN7barrier35centralized_sense_reversing_barrierEmmRSt6atomicIbEE_St17reference_wrapperIS6_EmmSC_IS9_EEEEESaISH_ELNS_12_Lock_policyE2EEE7destroyISK_EEvPT_>:
  403b2a:	55                   	push   %rbp
  403b2b:	48 89 e5             	mov    %rsp,%rbp
  403b2e:	48 83 ec 10          	sub    $0x10,%rsp
  403b32:	48 89 7d f8          	mov    %rdi,-0x8(%rbp)
  403b36:	48 89 75 f0          	mov    %rsi,-0x10(%rbp)
  403b3a:	48 8b 45 f0          	mov    -0x10(%rbp),%rax
  403b3e:	48 89 c7             	mov    %rax,%rdi
  403b41:	e8 72 fc ff ff       	callq  4037b8 <_ZNSt23_Sp_counted_ptr_inplaceINSt6thread5_ImplISt12_Bind_simpleIFZ14run_experimentvEUlRN7barrier35centralized_sense_reversing_barrierEmmRSt6atomicIbEE_St17reference_wrapperIS4_EmmSA_IS7_EEEEESaISF_ELN9__gnu_cxx12_Lock_policyE2EED1Ev>
  403b46:	c9                   	leaveq 
  403b47:	c3                   	retq   

0000000000403b48 <_GLOBAL__sub_I__Z14run_experimentv>:
  403b48:	55                   	push   %rbp
  403b49:	48 89 e5             	mov    %rsp,%rbp
  403b4c:	be ff ff 00 00       	mov    $0xffff,%esi
  403b51:	bf 01 00 00 00       	mov    $0x1,%edi
  403b56:	e8 1f fc ff ff       	callq  40377a <_Z41__static_initialization_and_destruction_0ii>
  403b5b:	5d                   	pop    %rbp
  403b5c:	c3                   	retq   

0000000000403b5d <_ZnwmPv>:
void operator delete[](void*, const std::nothrow_t&) _GLIBCXX_USE_NOEXCEPT
  __attribute__((__externally_visible__));

// Default placement versions of operator new.
inline void* operator new(std::size_t, void* __p) _GLIBCXX_USE_NOEXCEPT
{ return __p; }
  403b5d:	55                   	push   %rbp
  403b5e:	48 89 e5             	mov    %rsp,%rbp
  403b61:	48 89 7d f8          	mov    %rdi,-0x8(%rbp)
  403b65:	48 89 75 f0          	mov    %rsi,-0x10(%rbp)
  403b69:	48 8b 45 f0          	mov    -0x10(%rbp),%rax
  403b6d:	5d                   	pop    %rbp
  403b6e:	c3                   	retq   

0000000000403b6f <_ZdlPvS_>:
inline void* operator new[](std::size_t, void* __p) _GLIBCXX_USE_NOEXCEPT
{ return __p; }

// Default placement versions of operator delete.
inline void operator delete  (void*, void*) _GLIBCXX_USE_NOEXCEPT { }
  403b6f:	55                   	push   %rbp
  403b70:	48 89 e5             	mov    %rsp,%rbp
  403b73:	48 89 7d f8          	mov    %rdi,-0x8(%rbp)
  403b77:	48 89 75 f0          	mov    %rsi,-0x10(%rbp)
  403b7b:	5d                   	pop    %rbp
  403b7c:	c3                   	retq   

0000000000403b7d <_ZStorSt13_Ios_OpenmodeS_>:
  operator&(_Ios_Openmode __a, _Ios_Openmode __b)
  { return _Ios_Openmode(static_cast<int>(__a) & static_cast<int>(__b)); }

  inline _GLIBCXX_CONSTEXPR _Ios_Openmode
  operator|(_Ios_Openmode __a, _Ios_Openmode __b)
  { return _Ios_Openmode(static_cast<int>(__a) | static_cast<int>(__b)); }
  403b7d:	55                   	push   %rbp
  403b7e:	48 89 e5             	mov    %rsp,%rbp
  403b81:	89 7d fc             	mov    %edi,-0x4(%rbp)
  403b84:	89 75 f8             	mov    %esi,-0x8(%rbp)
  403b87:	8b 55 fc             	mov    -0x4(%rbp),%edx
  403b8a:	8b 45 f8             	mov    -0x8(%rbp),%eax
  403b8d:	09 d0                	or     %edx,%eax
  403b8f:	5d                   	pop    %rbp
  403b90:	c3                   	retq   
  403b91:	90                   	nop

0000000000403b92 <_ZNSt6chrono8durationIlSt5ratioILl1ELl1000000000EEEC1IlvEERKT_>:

	template<typename _Rep2, typename = typename
	       enable_if<is_convertible<_Rep2, rep>::value
			 && (treat_as_floating_point<rep>::value
			     || !treat_as_floating_point<_Rep2>::value)>::type>
	  constexpr explicit duration(const _Rep2& __rep)
  403b92:	55                   	push   %rbp
  403b93:	48 89 e5             	mov    %rsp,%rbp
  403b96:	48 89 7d f8          	mov    %rdi,-0x8(%rbp)
  403b9a:	48 89 75 f0          	mov    %rsi,-0x10(%rbp)
	  : __r(static_cast<rep>(__rep)) { }
  403b9e:	48 8b 45 f0          	mov    -0x10(%rbp),%rax
  403ba2:	48 8b 10             	mov    (%rax),%rdx
  403ba5:	48 8b 45 f8          	mov    -0x8(%rbp),%rax
  403ba9:	48 89 10             	mov    %rdx,(%rax)
  403bac:	5d                   	pop    %rbp
  403bad:	c3                   	retq   

0000000000403bae <_ZNKSt6chrono8durationIlSt5ratioILl1ELl1000000000EEE5countEv>:
	~duration() = default;
	duration& operator=(const duration&) = default;

	// 20.11.5.2 observer
	constexpr rep
	count() const
  403bae:	55                   	push   %rbp
  403baf:	48 89 e5             	mov    %rsp,%rbp
  403bb2:	48 89 7d f8          	mov    %rdi,-0x8(%rbp)
	{ return __r; }
  403bb6:	48 8b 45 f8          	mov    -0x8(%rbp),%rax
  403bba:	48 8b 00             	mov    (%rax),%rax
  403bbd:	5d                   	pop    %rbp
  403bbe:	c3                   	retq   
  403bbf:	90                   	nop

0000000000403bc0 <_ZNKSt9type_infoeqERKS_>:
    bool before(const type_info& __arg) const _GLIBCXX_NOEXCEPT
    { return (__name[0] == '*' && __arg.__name[0] == '*')
	? __name < __arg.__name
	: __builtin_strcmp (__name, __arg.__name) < 0; }

    bool operator==(const type_info& __arg) const _GLIBCXX_NOEXCEPT
  403bc0:	55                   	push   %rbp
  403bc1:	48 89 e5             	mov    %rsp,%rbp
  403bc4:	48 83 ec 10          	sub    $0x10,%rsp
  403bc8:	48 89 7d f8          	mov    %rdi,-0x8(%rbp)
  403bcc:	48 89 75 f0          	mov    %rsi,-0x10(%rbp)
    {
      return ((__name == __arg.__name)
  403bd0:	48 8b 45 f8          	mov    -0x8(%rbp),%rax
  403bd4:	48 8b 50 08          	mov    0x8(%rax),%rdx
  403bd8:	48 8b 45 f0          	mov    -0x10(%rbp),%rax
  403bdc:	48 8b 40 08          	mov    0x8(%rax),%rax
	      || (__name[0] != '*' &&
  403be0:	48 39 c2             	cmp    %rax,%rdx
  403be3:	74 2e                	je     403c13 <_ZNKSt9type_infoeqERKS_+0x53>
  403be5:	48 8b 45 f8          	mov    -0x8(%rbp),%rax
  403be9:	48 8b 40 08          	mov    0x8(%rax),%rax
  403bed:	0f b6 00             	movzbl (%rax),%eax
  403bf0:	3c 2a                	cmp    $0x2a,%al
  403bf2:	74 26                	je     403c1a <_ZNKSt9type_infoeqERKS_+0x5a>
		  __builtin_strcmp (__name, __arg.__name) == 0));
  403bf4:	48 8b 45 f0          	mov    -0x10(%rbp),%rax
  403bf8:	48 8b 50 08          	mov    0x8(%rax),%rdx
  403bfc:	48 8b 45 f8          	mov    -0x8(%rbp),%rax
  403c00:	48 8b 40 08          	mov    0x8(%rax),%rax
  403c04:	48 89 d6             	mov    %rdx,%rsi
  403c07:	48 89 c7             	mov    %rax,%rdi
  403c0a:	e8 f1 db ff ff       	callq  401800 <strcmp@plt>
	: __builtin_strcmp (__name, __arg.__name) < 0; }

    bool operator==(const type_info& __arg) const _GLIBCXX_NOEXCEPT
    {
      return ((__name == __arg.__name)
	      || (__name[0] != '*' &&
  403c0f:	85 c0                	test   %eax,%eax
  403c11:	75 07                	jne    403c1a <_ZNKSt9type_infoeqERKS_+0x5a>
  403c13:	b8 01 00 00 00       	mov    $0x1,%eax
  403c18:	eb 05                	jmp    403c1f <_ZNKSt9type_infoeqERKS_+0x5f>
  403c1a:	b8 00 00 00 00       	mov    $0x0,%eax
		  __builtin_strcmp (__name, __arg.__name) == 0));
    }
  403c1f:	c9                   	leaveq 
  403c20:	c3                   	retq   
  403c21:	90                   	nop

0000000000403c22 <_ZNSt6thread2idC1Ev>:
    class id
    {
      native_handle_type	_M_thread;

    public:
      id() noexcept : _M_thread() { }
  403c22:	55                   	push   %rbp
  403c23:	48 89 e5             	mov    %rsp,%rbp
  403c26:	48 89 7d f8          	mov    %rdi,-0x8(%rbp)
  403c2a:	48 8b 45 f8          	mov    -0x8(%rbp),%rax
  403c2e:	48 c7 00 00 00 00 00 	movq   $0x0,(%rax)
  403c35:	5d                   	pop    %rbp
  403c36:	c3                   	retq   

0000000000403c37 <_ZSteqNSt6thread2idES0_>:
    private:
      friend class thread;
      friend class hash<thread::id>;

      friend bool
      operator==(thread::id __x, thread::id __y) noexcept
  403c37:	55                   	push   %rbp
  403c38:	48 89 e5             	mov    %rsp,%rbp
  403c3b:	48 83 ec 20          	sub    $0x20,%rsp
  403c3f:	48 89 7d f0          	mov    %rdi,-0x10(%rbp)
  403c43:	48 89 75 e0          	mov    %rsi,-0x20(%rbp)
      { return __gthread_equal(__x._M_thread, __y._M_thread); }
  403c47:	48 8b 55 e0          	mov    -0x20(%rbp),%rdx
  403c4b:	48 8b 45 f0          	mov    -0x10(%rbp),%rax
  403c4f:	48 89 d6             	mov    %rdx,%rsi
  403c52:	48 89 c7             	mov    %rax,%rdi
  403c55:	e8 5e e1 ff ff       	callq  401db8 <_ZL15__gthread_equalmm>
  403c5a:	85 c0                	test   %eax,%eax
  403c5c:	0f 95 c0             	setne  %al
  403c5f:	c9                   	leaveq 
  403c60:	c3                   	retq   
  403c61:	90                   	nop

0000000000403c62 <_ZNSt6threadC1EOS_>:
    // _GLIBCXX_RESOLVE_LIB_DEFECTS
    // 2097.  packaged_task constructors should be constrained
    thread(thread&) = delete;
    thread(const thread&) = delete;

    thread(thread&& __t) noexcept
  403c62:	55                   	push   %rbp
  403c63:	48 89 e5             	mov    %rsp,%rbp
  403c66:	48 83 ec 10          	sub    $0x10,%rsp
  403c6a:	48 89 7d f8          	mov    %rdi,-0x8(%rbp)
  403c6e:	48 89 75 f0          	mov    %rsi,-0x10(%rbp)
    { swap(__t); }
  403c72:	48 8b 45 f8          	mov    -0x8(%rbp),%rax
  403c76:	48 89 c7             	mov    %rax,%rdi
  403c79:	e8 a4 ff ff ff       	callq  403c22 <_ZNSt6thread2idC1Ev>
  403c7e:	48 8b 55 f0          	mov    -0x10(%rbp),%rdx
  403c82:	48 8b 45 f8          	mov    -0x8(%rbp),%rax
  403c86:	48 89 d6             	mov    %rdx,%rsi
  403c89:	48 89 c7             	mov    %rax,%rdi
  403c8c:	e8 27 00 00 00       	callq  403cb8 <_ZNSt6thread4swapERS_>
  403c91:	c9                   	leaveq 
  403c92:	c3                   	retq   
  403c93:	90                   	nop

0000000000403c94 <_ZNSt6threadD1Ev>:
        _M_start_thread(_M_make_routine(std::__bind_simple(
                std::forward<_Callable>(__f),
                std::forward<_Args>(__args)...)));
      }

    ~thread()
  403c94:	55                   	push   %rbp
  403c95:	48 89 e5             	mov    %rsp,%rbp
  403c98:	48 83 ec 10          	sub    $0x10,%rsp
  403c9c:	48 89 7d f8          	mov    %rdi,-0x8(%rbp)
    {
      if (joinable())
  403ca0:	48 8b 45 f8          	mov    -0x8(%rbp),%rax
  403ca4:	48 89 c7             	mov    %rax,%rdi
  403ca7:	e8 32 00 00 00       	callq  403cde <_ZNKSt6thread8joinableEv>
  403cac:	84 c0                	test   %al,%al
  403cae:	74 05                	je     403cb5 <_ZNSt6threadD1Ev+0x21>
	std::terminate();
  403cb0:	e8 cb da ff ff       	callq  401780 <_ZSt9terminatev@plt>
    }
  403cb5:	c9                   	leaveq 
  403cb6:	c3                   	retq   
  403cb7:	90                   	nop

0000000000403cb8 <_ZNSt6thread4swapERS_>:
      swap(__t);
      return *this;
    }

    void
    swap(thread& __t) noexcept
  403cb8:	55                   	push   %rbp
  403cb9:	48 89 e5             	mov    %rsp,%rbp
  403cbc:	48 83 ec 10          	sub    $0x10,%rsp
  403cc0:	48 89 7d f8          	mov    %rdi,-0x8(%rbp)
  403cc4:	48 89 75 f0          	mov    %rsi,-0x10(%rbp)
    { std::swap(_M_id, __t._M_id); }
  403cc8:	48 8b 55 f0          	mov    -0x10(%rbp),%rdx
  403ccc:	48 8b 45 f8          	mov    -0x8(%rbp),%rax
  403cd0:	48 89 d6             	mov    %rdx,%rsi
  403cd3:	48 89 c7             	mov    %rax,%rdi
  403cd6:	e8 96 11 00 00       	callq  404e71 <_ZSt4swapINSt6thread2idEEvRT_S3_>
  403cdb:	c9                   	leaveq 
  403cdc:	c3                   	retq   
  403cdd:	90                   	nop

0000000000403cde <_ZNKSt6thread8joinableEv>:

    bool
    joinable() const noexcept
  403cde:	55                   	push   %rbp
  403cdf:	48 89 e5             	mov    %rsp,%rbp
  403ce2:	48 83 ec 20          	sub    $0x20,%rsp
  403ce6:	48 89 7d e8          	mov    %rdi,-0x18(%rbp)
    { return !(_M_id == id()); }
  403cea:	48 8d 45 f0          	lea    -0x10(%rbp),%rax
  403cee:	48 89 c7             	mov    %rax,%rdi
  403cf1:	e8 2c ff ff ff       	callq  403c22 <_ZNSt6thread2idC1Ev>
  403cf6:	48 8b 55 f0          	mov    -0x10(%rbp),%rdx
  403cfa:	48 8b 45 e8          	mov    -0x18(%rbp),%rax
  403cfe:	48 89 d6             	mov    %rdx,%rsi
  403d01:	48 8b 38             	mov    (%rax),%rdi
  403d04:	e8 2e ff ff ff       	callq  403c37 <_ZSteqNSt6thread2idES0_>
  403d09:	83 f0 01             	xor    $0x1,%eax
  403d0c:	c9                   	leaveq 
  403d0d:	c3                   	retq   

0000000000403d0e <_ZNSt6thread13native_handleEv>:
    { return _M_id; }

    /** @pre thread is joinable
     */
    native_handle_type
    native_handle()
  403d0e:	55                   	push   %rbp
  403d0f:	48 89 e5             	mov    %rsp,%rbp
  403d12:	48 89 7d f8          	mov    %rdi,-0x8(%rbp)
    { return _M_id._M_thread; }
  403d16:	48 8b 45 f8          	mov    -0x8(%rbp),%rax
  403d1a:	48 8b 00             	mov    (%rax),%rax
  403d1d:	5d                   	pop    %rbp
  403d1e:	c3                   	retq   
  403d1f:	90                   	nop

0000000000403d20 <_ZNSt12__shared_ptrINSt6thread10_Impl_baseELN9__gnu_cxx12_Lock_policyE2EED1Ev>:
	: _M_ptr(__p), _M_refcount(__r._M_refcount) // never throws
	{ }

      __shared_ptr(const __shared_ptr&) noexcept = default;
      __shared_ptr& operator=(const __shared_ptr&) noexcept = default;
      ~__shared_ptr() = default;
  403d20:	55                   	push   %rbp
  403d21:	48 89 e5             	mov    %rsp,%rbp
  403d24:	48 83 ec 10          	sub    $0x10,%rsp
  403d28:	48 89 7d f8          	mov    %rdi,-0x8(%rbp)
  403d2c:	48 8b 45 f8          	mov    -0x8(%rbp),%rax
  403d30:	48 83 c0 08          	add    $0x8,%rax
  403d34:	48 89 c7             	mov    %rax,%rdi
  403d37:	e8 86 11 00 00       	callq  404ec2 <_ZNSt14__shared_countILN9__gnu_cxx12_Lock_policyE2EED1Ev>
  403d3c:	c9                   	leaveq 
  403d3d:	c3                   	retq   

0000000000403d3e <_ZNSt10shared_ptrINSt6thread10_Impl_baseEED1Ev>:
   *
   *  The object pointed to is deleted when the last shared_ptr pointing to
   *  it is destroyed or reset.
  */
  template<typename _Tp>
    class shared_ptr : public __shared_ptr<_Tp>
  403d3e:	55                   	push   %rbp
  403d3f:	48 89 e5             	mov    %rsp,%rbp
  403d42:	48 83 ec 10          	sub    $0x10,%rsp
  403d46:	48 89 7d f8          	mov    %rdi,-0x8(%rbp)
  403d4a:	48 8b 45 f8          	mov    -0x8(%rbp),%rax
  403d4e:	48 89 c7             	mov    %rax,%rdi
  403d51:	e8 ca ff ff ff       	callq  403d20 <_ZNSt12__shared_ptrINSt6thread10_Impl_baseELN9__gnu_cxx12_Lock_policyE2EED1Ev>
  403d56:	c9                   	leaveq 
  403d57:	c3                   	retq   

0000000000403d58 <_ZNSt6thread10_Impl_baseD1Ev>:
	operator<<(basic_ostream<_CharT, _Traits>& __out, thread::id __id);
    };

    // Simple base type that the templatized, derived class containing
    // an arbitrary functor can be converted to and called.
    struct _Impl_base
  403d58:	55                   	push   %rbp
  403d59:	48 89 e5             	mov    %rsp,%rbp
  403d5c:	48 83 ec 10          	sub    $0x10,%rsp
  403d60:	48 89 7d f8          	mov    %rdi,-0x8(%rbp)
  403d64:	48 8b 45 f8          	mov    -0x8(%rbp),%rax
  403d68:	48 c7 00 90 c2 40 00 	movq   $0x40c290,(%rax)
  403d6f:	48 8b 45 f8          	mov    -0x8(%rbp),%rax
  403d73:	48 83 c0 08          	add    $0x8,%rax
  403d77:	48 89 c7             	mov    %rax,%rdi
  403d7a:	e8 bf ff ff ff       	callq  403d3e <_ZNSt10shared_ptrINSt6thread10_Impl_baseEED1Ev>
  403d7f:	b8 00 00 00 00       	mov    $0x0,%eax
  403d84:	85 c0                	test   %eax,%eax
  403d86:	74 0c                	je     403d94 <_ZNSt6thread10_Impl_baseD1Ev+0x3c>
  403d88:	48 8b 45 f8          	mov    -0x8(%rbp),%rax
  403d8c:	48 89 c7             	mov    %rax,%rdi
  403d8f:	e8 cc d8 ff ff       	callq  401660 <_ZdlPv@plt>
  403d94:	c9                   	leaveq 
  403d95:	c3                   	retq   

0000000000403d96 <_ZNSt6thread10_Impl_baseD0Ev>:
  403d96:	55                   	push   %rbp
  403d97:	48 89 e5             	mov    %rsp,%rbp
  403d9a:	48 83 ec 10          	sub    $0x10,%rsp
  403d9e:	48 89 7d f8          	mov    %rdi,-0x8(%rbp)
  403da2:	48 8b 45 f8          	mov    -0x8(%rbp),%rax
  403da6:	48 89 c7             	mov    %rax,%rdi
  403da9:	e8 aa ff ff ff       	callq  403d58 <_ZNSt6thread10_Impl_baseD1Ev>
  403dae:	48 8b 45 f8          	mov    -0x8(%rbp),%rax
  403db2:	48 89 c7             	mov    %rax,%rdi
  403db5:	e8 a6 d8 ff ff       	callq  401660 <_ZdlPv@plt>
  403dba:	c9                   	leaveq 
  403dbb:	c3                   	retq   

0000000000403dbc <_ZStanSt12memory_orderSt23__memory_order_modifier>:
    return memory_order(__m | int(__mod));
  }

  constexpr memory_order
  operator&(memory_order __m, __memory_order_modifier __mod)
  {
  403dbc:	55                   	push   %rbp
  403dbd:	48 89 e5             	mov    %rsp,%rbp
  403dc0:	89 7d fc             	mov    %edi,-0x4(%rbp)
  403dc3:	89 75 f8             	mov    %esi,-0x8(%rbp)
    return memory_order(__m & int(__mod));
  403dc6:	8b 55 fc             	mov    -0x4(%rbp),%edx
  403dc9:	8b 45 f8             	mov    -0x8(%rbp),%eax
  403dcc:	21 d0                	and    %edx,%eax
  }
  403dce:	5d                   	pop    %rbp
  403dcf:	c3                   	retq   

0000000000403dd0 <_ZNSt11atomic_boolaSEb>:
    atomic_bool& operator=(const atomic_bool&) volatile = delete;

    constexpr atomic_bool(bool __i) noexcept : _M_base(__i) { }

    bool
    operator=(bool __i) noexcept
